(dp0
S'223211'
p1
S'YP_005983.1'
p2
sS'359030'
p3
S'YP_001054762.1'
p4
sS'129141'
p5
S'NP_624335.1'
p6
sS'261726'
p7
S'YP_001039882.1'
p8
sS'338109'
p9
S'YP_512469.1'
p10
sS'35238'
p11
S'NP_064646.1'
p12
sS'13735'
p13
S'YP_063372.1'
p14
sS'101764'
p15
S'NP_116492.1'
p16
sS'186153'
p17
S'NP_803404.1'
p18
sS'267409'
p19
S'ZP_00235257.1'
p20
sS'374930'
p21
S'YP_001291509.1'
p22
sS'196072'
p23
S'YP_001293800.1'
p24
sS'88713'
p25
S'NP_443579.1'
p26
sS'347328'
p27
S'YP_001294593.1'
p28
sS'27288'
p29
S'NP_644686.1'
p30
sS'196075'
p31
S'YP_001293878.1'
p32
sS'390236'
p33
S'YP_854499.1'
p34
sS'313598'
p35
S'ZP_01054299.1'
p36
sS'190808'
p37
S'NC_003777.1'
p38
sS'139872'
p39
S'NP_958555.1'
p40
sS'41426'
p41
S'YP_001023775.1'
p42
sS'310540'
p43
S'YP_213995.1'
p44
sS'92652'
p45
S'NP_478053.1'
p46
sS'346'
p47
S'NP_942642.1'
p48
sS'170203'
p49
S'NP_795832.1'
p50
sS'435486'
p51
S'YP_001210297.1'
p52
sS'407976'
p53
S'ZP_01844665.1'
p54
sS'170206'
p55
S'NP_795858.1'
p56
sS'435488'
p57
S'YP_001210298.1'
p58
sS'39101'
p59
S'NP_542260.1'
p60
sS'386585'
p61
S'NP_958727.1'
p62
sS'155414'
p63
S'NP_108651.1'
p64
sS'272951'
p65
S'ZP_00143113.1'
p66
sS'424585'
p67
S'YP_001382345.1'
p68
sS'120431'
p69
S'YP_784021.1'
p70
sS'57483'
p71
S'YP_001285397.1'
p72
sS'218846'
p73
S'NP_777546.1'
p74
sS'256994'
p75
S'NP_963962.1'
p76
sS'340102'
p77
S'YP_001425571.1'
p78
sS'12702'
p79
S'NP_751906.1'
p80
sS'214092'
p81
S'NP_955488.1'
p82
sS'398839'
p83
S'YP_950663.1'
p84
sS'184539'
p85
S'NP_569072.1'
p86
sS'223324'
p87
S'NP_808806.1'
p88
sS'120686'
p89
S'NP_597938.1'
p90
sS'420336'
p91
S'NZ_ABEQ01000092.1'
p92
sS'223323'
p93
S'YP_293693.1'
p94
sS'326489'
p95
S'YP_271831.1'
p96
sS'223321'
p97
S'NP_808906.1'
p98
sS'262585'
p99
S'YP_089628.1'
p100
sS'373193'
p101
S'YP_512363.1'
p102
sS'428127'
p103
S'NZ_ABAW01000046.1'
p104
sS'428125'
p105
S'NZ_ABCB01000058.1'
p106
sS'77763'
p107
S'NP_694479.1'
p108
sS'86962'
p109
S'YP_163854.1'
p110
sS'86963'
p111
S'YP_163958.1'
p112
sS'86964'
p113
S'YP_164010.1'
p114
sS'441772'
p115
S'YP_001393028.1'
p116
sS'86966'
p117
S'YP_163997.1'
p118
sS'86967'
p119
S'YP_163932.1'
p120
sS'5854'
p121
S'NP_057946.1'
p122
sS'5855'
p123
S'YP_272128.1'
p124
sS'153609'
p125
S'YP_025910.1'
p126
sS'5850'
p127
S'YP_272030.1'
p128
sS'445336'
p129
S'NZ_ABDP01000070.1'
p130
sS'389469'
p131
S'YP_950476.1'
p132
sS'156988'
p133
S'YP_626633.1'
p134
sS'5859'
p135
S'YP_272033.1'
p136
sS'458639'
p137
S'YP_001429836.1'
p138
sS'165826'
p139
S'NP_835275.1'
p140
sS'191460'
p141
S'NP_808754.1'
p142
sS'191463'
p143
S'NP_808766.1'
p144
sS'398741'
p145
S'YP_784538.1'
p146
sS'104664'
p147
S'NP_203558.1'
p148
sS'63737'
p149
S'ZP_00345957.1'
p150
sS'420246'
p151
S'YP_001127577.1'
p152
sS'370552'
p153
S'YP_599596.1'
p154
sS'274'
p155
S'NP_990875.1'
p156
sS'313625'
p157
S'ZP_01470178.1'
p158
sS'313624'
p159
S'ZP_01632831.1'
p160
sS'308872'
p161
S'YP_358648.1'
p162
sS'283876'
p163
S'YP_001039887.1'
p164
sS'313628'
p165
S'ZP_01877716.1'
p166
sS'374932'
p167
S'ZP_01793694.1'
p168
sS'374933'
p169
S'ZP_01795722.1'
p170
sS'12018'
p171
S'NP_040755.1'
p172
sS'204669'
p173
S'YP_593856.1'
p174
sS'315277'
p175
S'YP_328716.1'
p176
sS'12017'
p177
S'NP_039626.1'
p178
sS'196095'
p179
S'NC_003906.1'
p180
sS'196094'
p181
S'NC_004033.1'
p182
sS'11768'
p183
S'NP_955582.1'
p184
sS'431894'
p185
S'YP_001111255.1'
p186
sS'370554'
p187
S'YP_603473.1'
p188
sS'196093'
p189
S'NP_632019.1'
p190
sS'292792'
p191
S'YP_164635.1'
p192
sS'348137'
p193
S'YP_355416.1'
p194
sS'7883'
p195
S'NP_542468.1'
p196
sS'314565'
p197
S'YP_245387.1'
p198
sS'156989'
p199
S'YP_626672.1'
p200
sS'312349'
p201
S'YP_249604.1'
p202
sS'2443'
p203
S'NP_040379.1'
p204
sS'10708'
p205
S'NP_938262.1'
p206
sS'333849'
p207
S'ZP_00605201.1'
p208
sS'9258'
p209
S'XR_036595.1'
p210
sS'320831'
p211
S'YP_239460.1'
p212
sS'42906'
p213
S'YP_026159.1'
p214
sS'10702'
p215
S'YP_115515.1'
p216
sS'64294'
p217
S'NP_872627.1'
p218
sS'5823'
p219
S'XP_680476.1'
p220
sS'260684'
p221
S'YP_015696.1'
p222
sS'9523'
p223
S'NT_166770.1'
p224
sS'160490'
p225
S'NP_270120.1'
p226
sS'391009'
p227
S'YP_001307146.1'
p228
sS'146499'
p229
S'NP_072164.1'
p230
sS'340322'
p231
S'YP_001139943.1'
p232
sS'401650'
p233
S'ZP_01945341.1'
p234
sS'281309'
p235
S'YP_173323.1'
p236
sS'378806'
p237
S'ZP_01467671.1'
p238
sS'28414'
p239
S'NC_001383.1'
p240
sS'57073'
p241
S'YP_588208.1'
p242
sS'339860'
p243
S'YP_448597.1'
p244
sS'320432'
p245
S'YP_249755.1'
p246
sS'432587'
p247
S'YP_001111365.1'
p248
sS'441166'
p249
S'NZ_ABBE01001143.1'
p250
sS'204086'
p251
S'NP_817316.1'
p252
sS'320837'
p253
S'YP_239933.1'
p254
sS'441162'
p255
S'NZ_ABBG01000633.1'
p256
sS'106284'
p257
S'NP_510960.1'
p258
sS'441160'
p259
S'NZ_ABBJ01001888.1'
p260
sS'441161'
p261
S'NZ_ABBI01002371.1'
p262
sS'135742'
p263
S'YP_001429575.1'
p264
sS'11612'
p265
S'NP_619710.1'
p266
sS'11613'
p267
S'YP_009225.1'
p268
sS'191197'
p269
S'YP_022512.1'
p270
sS'9417'
p271
S'NP_008496.1'
p272
sS'12123'
p273
S'NC_011452.1'
p274
sS'10634'
p275
S'NP_041269.1'
p276
sS'10633'
p277
S'NP_043128.1'
p278
sS'10632'
p279
S'NP_043513.1'
p280
sS'404196'
p281
S'YP_227378.1'
p282
sS'11619'
p283
S'NP_955757.1'
p284
sS'10141'
p285
S'NT_166780.1'
p286
sS'389214'
p287
S'YP_656655.1'
p288
sS'391591'
p289
S'ZP_01870786.1'
p290
sS'202568'
p291
S'NP_671453.1'
p292
sS'45661'
p293
S'YP_001427389.1'
p294
sS'54556'
p295
S'YP_913483.1'
p296
sS'439015'
p297
S'YP_001429582.1'
p298
sS'202567'
p299
S'NP_671447.1'
p300
sS'85618'
p301
S'NP_597862.1'
p302
sS'190809'
p303
S'NP_612829.1'
p304
sS'10386'
p305
S'YP_182411.1'
p306
sS'10385'
p307
S'NP_076572.1'
p308
sS'5116'
p309
S'NC_002364.1'
p310
sS'83875'
p311
S'NP_148776.1'
p312
sS'190485'
p313
S'NP_639576.1'
p314
sS'10381'
p315
S'NP_040277.1'
p316
sS'63118'
p317
S'NP_758453.1'
p318
sS'49895'
p319
S'NP_008328.1'
p320
sS'137881'
p321
S'NP_740048.1'
p322
sS'439016'
p323
S'YP_001429584.1'
p324
sS'390442'
p325
S'YP_001285747.1'
p326
sS'28795'
p327
S'YP_636121.1'
p328
sS'390440'
p329
S'YP_001285735.1'
p330
sS'390441'
p331
S'YP_001285741.1'
p332
sS'247269'
p333
S'NP_932325.1'
p334
sS'398580'
p335
S'ZP_01587249.1'
p336
sS'38504'
p337
S'NZ_AAYM01000027.1'
p338
sS'319224'
p339
S'YP_001185507.1'
p340
sS'37554'
p341
S'NP_597908.1'
p342
sS'157619'
p343
S'NP_150063.1'
p344
sS'37003'
p345
S'NP_510981.1'
p346
sS'37550'
p347
S'YP_788155.1'
p348
sS'12235'
p349
S'NP_044580.1'
p350
sS'6207'
p351
S'NP_066240.2'
p352
sS'28791'
p353
S'YP_913275.1'
p354
sS'390844'
p355
S'YP_899469.1'
p356
sS'12232'
p357
S'NP_734192.1'
p358
sS'12239'
p359
S'NP_619743.1'
p360
sS'12238'
p361
S'NP_056812.1'
p362
sS'272621'
p363
S'YP_194803.1'
p364
sS'272620'
p365
S'YP_001338878.1'
p366
sS'272623'
p367
S'NP_835343.1'
p368
sS'272622'
p369
S'YP_812134.1'
p370
sS'272624'
p371
S'YP_096997.1'
p372
sS'272627'
p373
S'ZP_00210270.1'
p374
sS'272626'
p375
S'NP_569232.1'
p376
sS'272629'
p377
S'NZ_AASA01000152.1'
p378
sS'41697'
p379
S'NP_071465.1'
p380
sS'243563'
p381
S'YP_941474.2'
p382
sS'186103'
p383
S'NP_608182.1'
p384
sS'10561'
p385
S'NP_694452.1'
p386
sS'10567'
p387
S'NP_042019.1'
p388
sS'9742'
p389
S'NP_944775.1'
p390
sS'10564'
p391
S'NP_597789.1'
p392
sS'175798'
p393
S'YP_717026.1'
p394
sS'319318'
p395
S'YP_220492.1'
p396
sS'10568'
p397
S'YP_873945.1'
p398
sS'431892'
p399
S'YP_001111200.1'
p400
sS'290340'
p401
S'YP_950420.1'
p402
sS'290399'
p403
S'YP_833647.1'
p404
sS'10092'
p405
S'YP_220562.1'
p406
sS'243160'
p407
S'YP_338555.1'
p408
sS'10090'
p409
S'XR_035752.1'
p410
sS'264198'
p411
S'YP_300072.1'
p412
sS'264199'
p413
S'YP_140434.1'
p414
sS'243164'
p415
S'YP_182335.1'
p416
sS'132908'
p417
S'NT_166757.1'
p418
sS'288317'
p419
S'YP_626594.1'
p420
sS'84588'
p421
S'YP_654196.1'
p422
sS'84589'
p423
S'NP_740643.1'
p424
sS'290397'
p425
S'YP_467561.1'
p426
sS'288313'
p427
S'YP_626685.1'
p428
sS'134762'
p429
S'YP_097101.1'
p430
sS'363253'
p431
S'YP_595720.1'
p432
sS'134760'
p433
S'YP_097218.1'
p434
sS'8839'
p435
S'YP_001382258.1'
p436
sS'198540'
p437
S'NP_795540.1'
p438
sS'112228'
p439
S'YP_224089.1'
p440
sS'112229'
p441
S'NP_663728.1'
p442
sS'112227'
p443
S'NP_148784.1'
p444
sS'210409'
p445
S'NP_872454.1'
p446
sS'202813'
p447
S'YP_077180.1'
p448
sS'202812'
p449
S'YP_077178.1'
p450
sS'71759'
p451
S'YP_636147.1'
p452
sS'67585'
p453
S'NP_619769.1'
p454
sS'41764'
p455
S'YP_063395.1'
p456
sS'41763'
p457
S'YP_054401.1'
p458
sS'209854'
p459
S'YP_052849.1'
p460
sS'30630'
p461
S'YP_626406.1'
p462
sS'59920'
p463
S'YP_293085.1'
p464
sS'30637'
p465
S'NP_955691.1'
p466
sS'552'
p467
S'NP_982006.1'
p468
sS'412133'
p469
S'XP_001584538.1'
p470
sS'80800'
p471
S'YP_913262.1'
p472
sS'272751'
p473
S'YP_025096.1'
p474
sS'157018'
p475
S'NP_734132.1'
p476
sS'298653'
p477
S'ZP_00574566.1'
p478
sS'367830'
p479
S'YP_495282.1'
p480
sS'94835'
p481
S'YP_665735.1'
p482
sS'336982'
p483
S'YP_001289886.1'
p484
sS'160070'
p485
S'YP_636278.1'
p486
sS'212035'
p487
S'YP_143265.1'
p488
sS'391574'
p489
S'ZP_01816818.1'
p490
sS'7070'
p491
S'XP_976494.1'
p492
sS'339671'
p493
S'YP_001345396.1'
p494
sS'333759'
p495
S'NP_041747.1'
p496
sS'211044'
p497
S'YP_418248.1'
p498
sS'391296'
p499
S'YP_001201749.1'
p500
sS'37956'
p501
S'NP_043373.1'
p502
sS'356347'
p503
S'YP_637074.1'
p504
sS'30521'
p505
S'YP_001218803.1'
p506
sS'29760'
p507
S'YP_567141.1'
p508
sS'406558'
p509
S'ZP_01824132.1'
p510
sS'416167'
p511
S'YP_918969.1'
p512
sS'157924'
p513
S'NP_862895.1'
p514
sS'72638'
p515
S'NP_597799.1'
p516
sS'340921'
p517
S'YP_415507.1'
p518
sS'146073'
p519
S'NP_786921.1'
p520
sS'413949'
p521
S'XP_001238795.1'
p522
sS'83129'
p523
S'YP_762569.1'
p524
sS'242619'
p525
S'NP_906268.1'
p526
sS'273371'
p527
S'YP_227581.1'
p528
sS'273372'
p529
S'YP_227566.1'
p530
sS'79626'
p531
S'YP_637087.1'
p532
sS'29022'
p533
S'YP_015447.1'
p534
sS'192952'
p535
S'NP_635395.1'
p536
sS'5530'
p537
S'YP_626459.1'
p538
sS'373251'
p539
S'YP_001293813.1'
p540
sS'197112'
p541
S'NP_835243.1'
p542
sS'27615'
p543
S'NP_944671.1'
p544
sS'360016'
p545
S'YP_618237.1'
p546
sS'40281'
p547
S'NP_041091.1'
p548
sS'27610'
p549
S'NP_944749.1'
p550
sS'123385'
p551
S'NP_052149.1'
p552
sS'1286'
p553
S'YP_758627.1'
p554
sS'1280'
p555
S'YP_536866.1'
p556
sS'1283'
p557
S'YP_758631.1'
p558
sS'1282'
p559
S'YP_758636.1'
p560
sS'342610'
p561
S'YP_663868.1'
p562
sS'126282'
p563
S'NP_068794.1'
p564
sS'28369'
p565
S'NP_597859.1'
p566
sS'342614'
p567
S'ZP_00791266.1'
p568
sS'11161'
p569
S'NP_054714.1'
p570
sS'342616'
p571
S'ZP_00786794.1'
p572
sS'342617'
p573
S'ZP_00788991.1'
p574
sS'314285'
p575
S'ZP_01104925.1'
p576
sS'289366'
p577
S'YP_238296.1'
p578
sS'1579'
p579
S'NP_862699.1'
p580
sS'319701'
p581
S'YP_281364.1'
p582
sS'8769'
p583
S'YP_313680.1'
p584
sS'375451'
p585
S'YP_771895.1'
p586
sS'148943'
p587
S'NP_835733.1'
p588
sS'623'
p589
S'NP_085448.1'
p590
sS'72705'
p591
S'NC_001907.1'
p592
sS'270161'
p593
S'YP_015569.1'
p594
sS'390978'
p595
S'YP_655517.1'
p596
sS'34513'
p597
S'NP_203518.1'
p598
sS'8019'
p599
S'YP_001122912.1'
p600
sS'8018'
p601
S'YP_001122886.1'
p602
sS'67962'
p603
S'NP_624320.1'
p604
sS'8010'
p605
S'NP_795767.1'
p606
sS'447909'
p607
S'YP_001285868.1'
p608
sS'6573'
p609
S'YP_001083070.1'
p610
sS'6577'
p611
S'YP_272045.1'
p612
sS'55117'
p613
S'NP_950234.1'
p614
sS'391596'
p615
S'ZP_01886919.1'
p616
sS'221988'
p617
S'YP_089576.1'
p618
sS'379360'
p619
S'ZP_01545037.1'
p620
sS'152217'
p621
S'NP_624332.2'
p622
sS'406560'
p623
S'ZP_01829304.1'
p624
sS'369723'
p625
S'YP_001161399.1'
p626
sS'85123'
p627
S'YP_337849.1'
p628
sS'1371'
p629
S'NP_054022.1'
p630
sS'360105'
p631
S'YP_001409235.1'
p632
sS'143350'
p633
S'NP_443709.1'
p634
sS'8496'
p635
S'NP_007574.1'
p636
sS'143306'
p637
S'NP_443475.1'
p638
sS'338105'
p639
S'YP_512428.1'
p640
sS'338104'
p641
S'YP_512418.1'
p642
sS'8499'
p643
S'NP_112728.2'
p644
sS'338106'
p645
S'YP_512438.1'
p646
sS'338101'
p647
S'YP_512388.1'
p648
sS'338100'
p649
S'YP_512378.1'
p650
sS'28742'
p651
S'YP_001109585.1'
p652
sS'45157'
p653
S'NP_059382.1'
p654
sS'338325'
p655
S'YP_656504.1'
p656
sS'180170'
p657
S'NP_612347.1'
p658
sS'338323'
p659
S'YP_656498.1'
p660
sS'217686'
p661
S'NP_733945.1'
p662
sS'74718'
p663
S'YP_001123178.1'
p664
sS'130478'
p665
S'NP_597939.1'
p666
sS'10884'
p667
S'NP_954613.1'
p668
sS'10885'
p669
S'NP_955541.1'
p670
sS'10886'
p671
S'NP_954615.1'
p672
sS'28985'
p673
S'YP_355329.1'
p674
sS'43263'
p675
S'YP_025351.1'
p676
sS'11577'
p677
S'NP_671971.1'
p678
sS'100379'
p679
S'YP_214984.1'
p680
sS'190810'
p681
S'NC_003553.1'
p682
sS'154587'
p683
S'YP_097127.1'
p684
sS'93224'
p685
S'NP_052064.1'
p686
sS'340435'
p687
S'YP_851198.1'
p688
sS'179927'
p689
S'YP_980229.1'
p690
sS'345075'
p691
S'ZP_01487358.1'
p692
sS'196242'
p693
S'NP_851987.1'
p694
sS'345074'
p695
S'ZP_01484049.1'
p696
sS'86961'
p697
S'YP_163841.1'
p698
sS'261939'
p699
S'YP_024673.1'
p700
sS'304222'
p701
S'YP_223873.1'
p702
sS'345076'
p703
S'ZP_01682900.1'
p704
sS'55752'
p705
S'YP_073360.1'
p706
sS'32536'
p707
S'NP_941390.1'
p708
sS'35338'
p709
S'NP_694829.1'
p710
sS'436447'
p711
S'YP_001285409.1'
p712
sS'181397'
p713
S'NP_739658.1'
p714
sS'342613'
p715
S'ZP_00782042.1'
p716
sS'52258'
p717
S'NC_001425.1'
p718
sS'373067'
p719
S'YP_001096325.1'
p720
sS'181393'
p721
S'NP_739645.1'
p722
sS'354114'
p723
S'YP_492593.1'
p724
sS'94237'
p725
S'YP_005970.1'
p726
sS'373068'
p727
S'YP_001096269.1'
p728
sS'292414'
p729
S'YP_615025.1'
p730
sS'292415'
p731
S'YP_316585.1'
p732
sS'114777'
p733
S'NP_666015.1'
p734
sS'373665'
p735
S'ZP_01178514.1'
p736
sS'151599'
p737
S'YP_164095.1'
p738
sS'441771'
p739
S'YP_001389369.1'
p740
sS'6145'
p741
S'YP_783956.1'
p742
sS'394'
p743
S'YP_052973.1'
p744
sS'223334'
p745
S'NP_808778.1'
p746
sS'223337'
p747
S'NP_148933.1'
p748
sS'410358'
p749
S'YP_001031184.1'
p750
sS'345072'
p751
S'ZP_01480820.1'
p752
sS'223332'
p753
S'NP_808870.1'
p754
sS'88387'
p755
S'NP_660179.1'
p756
sS'314264'
p757
S'ZP_01038635.1'
p758
sS'109178'
p759
S'YP_001122925.1'
p760
sS'337052'
p761
S'NP_056744.1'
p762
sS'2303'
p763
S'YP_729239.1'
p764
sS'86220'
p765
S'NP_740178.1'
p766
sS'384360'
p767
S'YP_863931.1'
p768
sS'118157'
p769
S'NP_991053.1'
p770
sS'46126'
p771
S'YP_758634.1'
p772
sS'88389'
p773
S'NP_660181.1'
p774
sS'279530'
p775
S'YP_291195.1'
p776
sS'310907'
p777
S'NP_714939.1'
p778
sS'186165'
p779
S'NP_937982.1'
p780
sS'65647'
p781
S'NP_945239.1'
p782
sS'279538'
p783
S'YP_077184.1'
p784
sS'224326'
p785
S'NP_660098.1'
p786
sS'224325'
p787
S'NP_071502.1'
p788
sS'224324'
p789
S'NP_214514.1'
p790
sS'409287'
p791
S'YP_001285875.1'
p792
sS'243090'
p793
S'NP_870985.1'
p794
sS'11287'
p795
S'NP_049550.1'
p796
sS'32625'
p797
S'NP_042511.1'
p798
sS'240556'
p799
S'NP_878243.1'
p800
sS'240557'
p801
S'NP_878244.1'
p802
sS'240555'
p803
S'NP_919029.1'
p804
sS'135595'
p805
S'YP_514616.1'
p806
sS'328524'
p807
S'YP_492606.1'
p808
sS'240558'
p809
S'NP_878245.1'
p810
sS'240559'
p811
S'NP_878246.1'
p812
sS'324602'
p813
S'ZP_00769461.1'
p814
sS'55999'
p815
S'YP_764442.1'
p816
sS'351746'
p817
S'YP_001270613.1'
p818
sS'351745'
p819
S'YP_965451.1'
p820
sS'75445'
p821
S'YP_245509.1'
p822
sS'75444'
p823
S'YP_001122873.2'
p824
sS'65467'
p825
S'NP_047280.1'
p826
sS'32002'
p827
S'NP_990936.1'
p828
sS'11757'
p829
S'NP_955571.1'
p830
sS'46015'
p831
S'NP_054185.1'
p832
sS'204722'
p833
S'YP_089635.1'
p834
sS'158372'
p835
S'YP_392485.1'
p836
sS'351581'
p837
S'NZ_AASP01000039.1'
p838
sS'57667'
p839
S'NP_046131.1'
p840
sS'165215'
p841
S'NP_149165.1'
p842
sS'43685'
p843
S'NP_695078.1'
p844
sS'11595'
p845
S'NP_955542.1'
p846
sS'61620'
p847
S'NP_795780.1'
p848
sS'261594'
p849
S'YP_052663.1'
p850
sS'11591'
p851
S'NP_941986.1'
p852
sS'64604'
p853
S'YP_001218790.1'
p854
sS'11593'
p855
S'YP_325663.1'
p856
sS'398065'
p857
S'YP_001429577.1'
p858
sS'2522'
p859
S'NP_040428.1'
p860
sS'191218'
p861
S'ZP_00395198.1'
p862
sS'11599'
p863
S'NP_941988.1'
p864
sS'61622'
p865
S'YP_659485.1'
p866
sS'119857'
p867
S'YP_514564.1'
p868
sS'246410'
p869
S'XP_001249295.1'
p870
sS'52100'
p871
S'YP_097192.1'
p872
sS'362399'
p873
S'YP_595725.1'
p874
sS'362398'
p875
S'NP_149413.1'
p876
sS'113540'
p877
S'YP_238293.1'
p878
sS'2454'
p879
S'NP_052555.1'
p880
sS'293613'
p881
S'ZP_01348088.1'
p882
sS'9534'
p883
S'YP_238254.1'
p884
sS'387662'
p885
S'YP_802579.1'
p886
sS'113097'
p887
S'NP_659223.1'
p888
sS'391038'
p889
S'ZP_01506483.1'
p890
sS'324332'
p891
S'YP_654162.1'
p892
sS'281310'
p893
S'YP_249454.1'
p894
sS'412967'
p895
S'ZP_01954954.1'
p896
sS'191032'
p897
S'NC_003533.1'
p898
sS'203120'
p899
S'YP_819515.1'
p900
sS'191034'
p901
S'YP_001382094.1'
p902
sS'391037'
p903
S'ZP_01651044.1'
p904
sS'399550'
p905
S'YP_001041592.1'
p906
sS'339854'
p907
S'ZP_00744434.1'
p908
sS'173824'
p909
S'NP_071837.1'
p910
sS'339858'
p911
S'YP_514629.1'
p912
sS'339859'
p913
S'YP_492678.1'
p914
sS'4536'
p915
S'YP_203383.1'
p916
sS'204090'
p917
S'NP_817338.1'
p918
sS'3694'
p919
S'YP_001109578.1'
p920
sS'338781'
p921
S'YP_654554.1'
p922
sS'13443'
p923
S'YP_817545.1'
p924
sS'402880'
p925
S'YP_001098354.1'
p926
sS'7980'
p927
S'NP_008315.1'
p928
sS'10629'
p929
S'YP_717941.1'
p930
sS'12138'
p931
S'NP_619722.1'
p932
sS'11620'
p933
S'NP_694872.1'
p934
sS'9407'
p935
S'YP_313617.1'
p936
sS'42486'
p937
S'NP_818890.1'
p938
sS'10620'
p939
S'NP_041859.1'
p940
sS'10621'
p941
S'NP_041866.1'
p942
sS'10623'
p943
S'NP_077113.1'
p944
sS'12136'
p945
S'NP_647482.1'
p946
sS'10625'
p947
S'NP_848015.1'
p948
sS'10626'
p949
S'NP_056735.1'
p950
sS'10627'
p951
S'NP_040789.1'
p952
sS'10401'
p953
S'NP_041183.1'
p954
sS'9337'
p955
S'NP_149943.1'
p956
sS'11978'
p957
S'NP_783312.1'
p958
sS'9333'
p959
S'YP_161220.1'
p960
sS'10407'
p961
S'YP_355335.1'
p962
sS'11970'
p963
S'YP_001165471.2'
p964
sS'11976'
p965
S'NP_740333.1'
p966
sS'283025'
p967
S'NP_740126.1'
p968
sS'48550'
p969
S'NP_758805.1'
p970
sS'10390'
p971
S'YP_001294938.1'
p972
sS'101849'
p973
S'YP_778798.1'
p974
sS'454164'
p975
S'NZ_ABEL01000048.1'
p976
sS'325111'
p977
S'YP_271823.1'
p978
sS'454166'
p979
S'NZ_ABEK01000056.1'
p980
sS'10397'
p981
S'NP_597953.1'
p982
sS'10398'
p983
S'YP_438199.1'
p984
sS'164972'
p985
S'YP_138330.1'
p986
sS'344747'
p987
S'ZP_01858148.1'
p988
sS'9627'
p989
S'YP_778941.1'
p990
sS'157069'
p991
S'YP_001382132.1'
p992
sS'299422'
p993
S'YP_220377.1'
p994
sS'357348'
p995
S'YP_001077207.1'
p996
sS'337826'
p997
S'YP_271829.1'
p998
sS'337825'
p999
S'YP_425036.1'
p1000
sS'337824'
p1001
S'YP_425035.1'
p1002
sS'337823'
p1003
S'YP_425034.1'
p1004
sS'80365'
p1005
S'YP_740849.1'
p1006
sS'80366'
p1007
S'NP_703141.1'
p1008
sS'335992'
p1009
S'YP_266782.1'
p1010
sS'33045'
p1011
S'YP_133707.1'
p1012
sS'7213'
p1013
S'NP_008659.1'
p1014
sS'336262'
p1015
S'YP_636082.1'
p1016
sS'380669'
p1017
S'YP_610969.1'
p1018
sS'267671'
p1019
S'YP_003660.1'
p1020
sS'6216'
p1021
S'NP_114380.1'
p1022
sS'12224'
p1023
S'NP_734142.1'
p1024
sS'10717'
p1025
S'NP_690804.1'
p1026
sS'6213'
p1027
S'YP_001218778.1'
p1028
sS'6212'
p1029
S'YP_001218766.1'
p1030
sS'6211'
p1031
S'NP_038262.1'
p1032
sS'6210'
p1033
S'YP_628285.1'
p1034
sS'288681'
p1035
S'YP_246016.1'
p1036
sS'269483'
p1037
S'YP_373935.1'
p1038
sS'28314'
p1039
S'NP_042875.1'
p1040
sS'10719'
p1041
S'NP_955755.1'
p1042
sS'12228'
p1043
S'NP_734338.1'
p1044
sS'199310'
p1045
S'NP_757336.1'
p1046
sS'344612'
p1047
S'XP_001276800.1'
p1048
sS'344610'
p1049
S'ZP_00738302.1'
p1050
sS'290030'
p1051
S'YP_184755.1'
p1052
sS'379728'
p1053
S'YP_729221.1'
p1054
sS'70342'
p1055
S'YP_626393.1'
p1056
sS'331271'
p1057
S'YP_626366.1'
p1058
sS'167879'
p1059
S'YP_271692.1'
p1060
sS'41171'
p1061
S'NP_624351.1'
p1062
sS'269801'
p1063
S'ZP_00241404.1'
p1064
sS'269800'
p1065
S'YP_291173.1'
p1066
sS'122586'
p1067
S'YP_338294.1'
p1068
sS'9755'
p1069
S'NP_062479.1'
p1070
sS'38632'
p1071
S'YP_161207.1'
p1072
sS'399549'
p1073
S'YP_001192357.1'
p1074
sS'374927'
p1075
S'ZP_01785709.1'
p1076
sS'48420'
p1077
S'YP_001382271.1'
p1078
sS'10570'
p1079
S'NP_043338.1'
p1080
sS'313629'
p1081
S'YP_338245.1'
p1082
sS'98923'
p1083
S'YP_788142.1'
p1084
sS'399739'
p1085
S'YP_001190101.1'
p1086
sS'338127'
p1087
S'YP_512666.1'
p1088
sS'146269'
p1089
S'YP_358809.1'
p1090
sS'96892'
p1091
S'YP_031730.1'
p1092
sS'1613'
p1093
S'NP_862332.1'
p1094
sS'187410'
p1095
S'NP_955515.1'
p1096
sS'391597'
p1097
S'ZP_01916806.1'
p1098
sS'204270'
p1099
S'YP_656507.1'
p1100
sS'168854'
p1101
S'YP_001315155.1'
p1102
sS'13262'
p1103
S'YP_073309.1'
p1104
sS'78276'
p1105
S'NP_543052.1'
p1106
sS'54571'
p1107
S'YP_328727.1'
p1108
sS'123735'
p1109
S'NP_620742.1'
p1110
sS'67593'
p1111
S'YP_001165424.1'
p1112
sS'2876'
p1113
S'YP_448713.1'
p1114
sS'41776'
p1115
S'YP_740715.1'
p1116
sS'54181'
p1117
S'YP_214952.1'
p1118
sS'202257'
p1119
S'YP_654274.1'
p1120
sS'7668'
p1121
S'XR_026631.1'
p1122
sS'54341'
p1123
S'NP_943662.1'
p1124
sS'3350'
p1125
S'NP_042506.1'
p1126
sS'54904'
p1127
S'NP_937933.1'
p1128
sS'265962'
p1129
S'NC_005821.1'
p1130
sS'316067'
p1131
S'ZP_01390562.1'
p1132
sS'389230'
p1133
S'YP_729209.1'
p1134
sS'79012'
p1135
S'NP_047208.1'
p1136
sS'333765'
p1137
S'NP_597793.1'
p1138
sS'333766'
p1139
S'NP_043294.1'
p1140
sS'164750'
p1141
S'YP_052861.1'
p1142
sS'164757'
p1143
S'YP_001074043.1'
p1144
sS'164756'
p1145
S'YP_642793.1'
p1146
sS'278977'
p1147
S'YP_044725.1'
p1148
sS'333763'
p1149
S'NP_041806.1'
p1150
sS'220932'
p1151
S'NP_632013.1'
p1152
sS'38744'
p1153
S'NP_065432.2'
p1154
sS'326574'
p1155
S'YP_271913.1'
p1156
sS'333769'
p1157
S'NP_671509.1'
p1158
sS'34899'
p1159
S'YP_637048.1'
p1160
sS'154821'
p1161
S'YP_913678.1'
p1162
sS'37762'
p1163
S'ZP_01702280.1'
p1164
sS'30538'
p1165
S'NP_063913.1'
p1166
sS'285013'
p1167
S'YP_077267.1'
p1168
sS'88029'
p1169
S'YP_659446.1'
p1170
sS'1764'
p1171
S'NP_863505.1'
p1172
sS'12480'
p1173
S'NP_848009.1'
p1174
sS'109298'
p1175
S'YP_961407.1'
p1176
sS'40223'
p1177
S'NP_038207.1'
p1178
sS'198214'
p1179
S'YP_177614.1'
p1180
sS'229636'
p1181
S'NP_955742.1'
p1182
sS'1148'
p1183
S'YP_680420.1'
p1184
sS'316279'
p1185
S'YP_654175.1'
p1186
sS'148880'
p1187
S'NP_116742.1'
p1188
sS'27602'
p1189
S'NP_944619.1'
p1190
sS'27604'
p1191
S'NP_944632.1'
p1192
sS'93678'
p1193
S'NP_054657.1'
p1194
sS'147425'
p1195
S'YP_538914.1'
p1196
sS'114871'
p1197
S'NP_624325.1'
p1198
sS'360398'
p1199
S'YP_918949.1'
p1200
sS'399726'
p1201
S'ZP_01456008.1'
p1202
sS'287944'
p1203
S'YP_220588.1'
p1204
sS'72750'
p1205
S'NP_940796.1'
p1206
sS'28355'
p1207
S'NP_620047.1'
p1208
sS'28354'
p1209
S'NP_620840.1'
p1210
sS'428406'
p1211
S'ZP_02010433.1'
p1212
sS'28351'
p1213
S'YP_227376.1'
p1214
sS'38294'
p1215
S'YP_908759.1'
p1216
sS'542'
p1217
S'NP_981969.1'
p1218
sS'30335'
p1219
S'NP_990949.1'
p1220
sS'360112'
p1221
S'ZP_01072342.1'
p1222
sS'34305'
p1223
S'NP_084858.1'
p1224
sS'30331'
p1225
S'YP_778629.1'
p1226
sS'67754'
p1227
S'YP_293706.1'
p1228
sS'345922'
p1229
S'YP_512360.1'
p1230
sS'126070'
p1231
S'NP_059530.1'
p1232
sS'31754'
p1233
S'NP_116556.1'
p1234
sS'31757'
p1235
S'NP_039752.1'
p1236
sS'330779'
p1237
S'YP_256946.1'
p1238
sS'31750'
p1239
S'NP_620037.1'
p1240
sS'60187'
p1241
S'NP_150365.1'
p1242
sS'129956'
p1243
S'NP_597698.1'
p1244
sS'188350'
p1245
S'NP_955002.1'
p1246
sS'259536'
p1247
S'YP_265428.1'
p1248
sS'129953'
p1249
S'YP_094055.1'
p1250
sS'129950'
p1251
S'NP_046336.1'
p1252
sS'129951'
p1253
S'NP_597756.1'
p1254
sS'127387'
p1255
S'YP_001256912.1'
p1256
sS'417399'
p1257
S'ZP_01973312.1'
p1258
sS'360111'
p1259
S'ZP_01068916.1'
p1260
sS'137522'
p1261
S'NP_795845.1'
p1262
sS'51031'
p1263
S'NP_579967.2'
p1264
sS'316275'
p1265
S'YP_209482.1'
p1266
sS'9986'
p1267
S'NT_166059.1'
p1268
sS'8023'
p1269
S'YP_908776.1'
p1270
sS'8021'
p1271
S'YP_961368.1'
p1272
sS'283643'
p1273
S'ZP_01763659.1'
p1274
sS'9983'
p1275
S'NP_659337.1'
p1276
sS'367682'
p1277
S'YP_842443.1'
p1278
sS'406557'
p1279
S'ZP_01821703.1'
p1280
sS'11027'
p1281
S'NP_740711.1'
p1282
sS'11021'
p1283
S'YP_913813.1'
p1284
sS'11020'
p1285
S'NP_819002.1'
p1286
sS'6565'
p1287
S'YP_254660.1'
p1288
sS'181082'
p1289
S'YP_294226.1'
p1290
sS'11029'
p1291
S'NP_740686.1'
p1292
sS'360106'
p1293
S'YP_892929.1'
p1294
sS'332415'
p1295
S'ZP_00545327.1'
p1296
sS'143342'
p1297
S'NP_443683.1'
p1298
sS'126671'
p1299
S'YP_112476.1'
p1300
sS'143345'
p1301
S'NP_443449.1'
p1302
sS'143344'
p1303
S'NP_443696.1'
p1304
sS'338130'
p1305
S'YP_512699.1'
p1306
sS'338131'
p1307
S'YP_512710.1'
p1308
sS'338132'
p1309
S'YP_512721.1'
p1310
sS'143348'
p1311
S'NP_443462.1'
p1312
sS'338134'
p1313
S'YP_512743.1'
p1314
sS'338135'
p1315
S'YP_512754.1'
p1316
sS'338136'
p1317
S'YP_512765.1'
p1318
sS'338137'
p1319
S'YP_512776.1'
p1320
sS'410291'
p1321
S'ZP_01988518.1'
p1322
sS'399742'
p1323
S'YP_001178856.1'
p1324
sS'284689'
p1325
S'YP_138537.1'
p1326
sS'266117'
p1327
S'YP_645933.1'
p1328
sS'74724'
p1329
S'NP_786912.1'
p1330
sS'158387'
p1331
S'NP_652758.1'
p1332
sS'355277'
p1333
S'YP_802397.1'
p1334
sS'383372'
p1335
S'YP_001434487.1'
p1336
sS'366394'
p1337
S'YP_001329224.1'
p1338
sS'101701'
p1339
S'YP_448880.1'
p1340
sS'11569'
p1341
S'YP_145810.1'
p1342
sS'77108'
p1343
S'YP_001001597.1'
p1344
sS'338133'
p1345
S'YP_512732.1'
p1346
sS'196253'
p1347
S'YP_313745.1'
p1348
sS'367766'
p1349
S'YP_654392.1'
p1350
sS'34632'
p1351
S'NP_008522.1'
p1352
sS'78873'
p1353
S'NP_818864.1'
p1354
sS'190478'
p1355
S'NP_938058.1'
p1356
sS'34638'
p1357
S'YP_001096014.1'
p1358
sS'228581'
p1359
S'NP_037640.1'
p1360
sS'228580'
p1361
S'NP_840049.1'
p1362
sS'141262'
p1363
S'NP_861588.1'
p1364
sS'190486'
p1365
S'NP_644801.1'
p1366
sS'109271'
p1367
S'NP_203713.1'
p1368
sS'96317'
p1369
S'NP_862679.1'
p1370
sS'96318'
p1371
S'NP_862680.1'
p1372
sS'279238'
p1373
S'YP_498607.1'
p1374
sS'412614'
p1375
S'ZP_01679085.1'
p1376
sS'373403'
p1377
S'YP_654897.1'
p1378
sS'74920'
p1379
S'YP_448841.1'
p1380
sS'67571'
p1381
S'NP_051015.1'
p1382
sS'74926'
p1383
S'YP_001127590.1'
p1384
sS'66797'
p1385
S'NP_046737.1'
p1386
sS'241836'
p1387
S'YP_659563.1'
p1388
sS'270117'
p1389
S'NP_955736.1'
p1390
sS'224130'
p1391
S'NP_803531.1'
p1392
sS'224131'
p1393
S'NP_803505.1'
p1394
sS'386104'
p1395
S'YP_654301.1'
p1396
sS'265311'
p1397
S'YP_053923.1'
p1398
sS'390437'
p1399
S'YP_001333683.1'
p1400
sS'390436'
p1401
S'YP_001333690.1'
p1402
sS'159087'
p1403
S'YP_287400.1'
p1404
sS'382'
p1405
S'NP_862599.1'
p1406
sS'143612'
p1407
S'YP_740095.1'
p1408
sS'86232'
p1409
S'NP_740191.1'
p1410
sS'314280'
p1411
S'ZP_01223134.1'
p1412
sS'223301'
p1413
S'NP_671475.1'
p1414
sS'314282'
p1415
S'ZP_01217585.1'
p1416
sS'223303'
p1417
S'NP_597687.1'
p1418
sS'223305'
p1419
S'NP_690917.1'
p1420
sS'77038'
p1421
S'ZP_00372958.1'
p1422
sS'150285'
p1423
S'NP_659017.1'
p1424
sS'69576'
p1425
S'YP_241114.1'
p1426
sS'69577'
p1427
S'YP_605811.1'
p1428
sS'118141'
p1429
S'NP_991014.1'
p1430
sS'118140'
p1431
S'NP_740359.1'
p1432
sS'43455'
p1433
S'YP_423948.1'
p1434
sS'10986'
p1435
S'YP_001111377.1'
p1436
sS'205135'
p1437
S'YP_913470.1'
p1438
sS'435591'
p1439
S'YP_001305267.1'
p1440
sS'315392'
p1441
S'YP_803553.1'
p1442
sS'180587'
p1443
S'NP_619683.1'
p1444
sS'11292'
p1445
S'NP_056797.1'
p1446
sS'11290'
p1447
S'NP_042681.1'
p1448
sS'214438'
p1449
S'YP_398795.1'
p1450
sS'104263'
p1451
S'NP_066263.1'
p1452
sS'391008'
p1453
S'ZP_01646136.1'
p1454
sS'64108'
p1455
S'NP_443631.1'
p1456
sS'302409'
p1457
S'YP_196876.1'
p1458
sS'234826'
p1459
S'YP_154393.1'
p1460
sS'60481'
p1461
S'YP_740069.1'
p1462
sS'60480'
p1463
S'YP_736063.1'
p1464
sS'341721'
p1465
S'YP_443943.1'
p1466
sS'224911'
p1467
S'NP_774957.1'
p1468
sS'333968'
p1469
S'NP_958047.1'
p1470
sS'224914'
p1471
S'NP_542116.1'
p1472
sS'224915'
p1473
S'NP_778248.1'
p1474
sS'281492'
p1475
S'YP_077183.1'
p1476
sS'167021'
p1477
S'YP_052930.1'
p1478
sS'75985'
p1479
S'YP_227612.1'
p1480
sS'53991'
p1481
S'NC_002743.1'
p1482
sS'384616'
p1483
S'YP_931505.1'
p1484
sS'11741'
p1485
S'NP_040844.1'
p1486
sS'12038'
p1487
S'NP_620069.1'
p1488
sS'88870'
p1489
S'NP_569825.1'
p1490
sS'11746'
p1491
S'NP_041188.1'
p1492
sS'244216'
p1493
S'YP_626666.1'
p1494
sS'246195'
p1495
S'YP_001210220.1'
p1496
sS'204711'
p1497
S'NP_740434.1'
p1498
sS'440534'
p1499
S'NZ_ABAO01000113.1'
p1500
sS'427343'
p1501
S'YP_001111267.1'
p1502
sS'6689'
p1503
S'YP_001315044.1'
p1504
sS'307677'
p1505
S'YP_224132.1'
p1506
sS'240492'
p1507
S'YP_006432.1'
p1508
sS'171822'
p1509
S'YP_001123615.1'
p1510
sS'354090'
p1511
S'NP_597837.2'
p1512
sS'11588'
p1513
S'NP_777376.1'
p1514
sS'6687'
p1515
S'NP_038300.1'
p1516
sS'99883'
p1517
S'YP_254673.1'
p1518
sS'387909'
p1519
S'YP_908854.1'
p1520
sS'53193'
p1521
S'NC_003613.1'
p1522
sS'42631'
p1523
S'NP_734262.1'
p1524
sS'52110'
p1525
S'YP_097257.1'
p1526
sS'387905'
p1527
S'YP_874013.1'
p1528
sS'376849'
p1529
S'NP_150590.1'
p1530
sS'36310'
p1531
S'YP_423935.1'
p1532
sS'130329'
p1533
S'AP_000106.1'
p1534
sS'165597'
p1535
S'ZP_00519469.1'
p1536
sS'381764'
p1537
S'YP_001411280.1'
p1538
sS'374928'
p1539
S'ZP_01791717.1'
p1540
sS'65634'
p1541
S'YP_783969.1'
p1542
sS'237727'
p1543
S'ZP_01041812.1'
p1544
sS'149950'
p1545
S'NC_004359.1'
p1546
sS'12104'
p1547
S'NP_740411.1'
p1548
sS'211491'
p1549
S'YP_133905.1'
p1550
sS'85454'
p1551
S'YP_459948.1'
p1552
sS'45462'
p1553
S'NP_862220.1'
p1554
sS'141458'
p1555
S'YP_961342.1'
p1556
sS'6359'
p1557
S'NP_009251.1'
p1558
sS'13333'
p1559
S'NP_904163.1'
p1560
sS'445983'
p1561
S'NZ_ABCV01000082.1'
p1562
sS'43141'
p1563
S'NP_620771.1'
p1564
sS'43140'
p1565
S'YP_001249278.1'
p1566
sS'6192'
p1567
S'NP_066228.2'
p1568
sS'197043'
p1569
S'YP_214939.1'
p1570
sS'11636'
p1571
S'YP_223872.1'
p1572
sS'7998'
p1573
S'NP_612137.1'
p1574
sS'11630'
p1575
S'YP_138544.1'
p1576
sS'11631'
p1577
S'NP_694850.1'
p1578
sS'49891'
p1579
S'YP_025093.1'
p1580
sS'9614'
p1581
S'YP_626727.1'
p1582
sS'9615'
p1583
S'XR_000308.2'
p1584
sS'9612'
p1585
S'YP_626740.1'
p1586
sS'51313'
p1587
S'YP_063713.1'
p1588
sS'10169'
p1589
S'NP_075407.1'
p1590
sS'164037'
p1591
S'NP_777352.1'
p1592
sS'273063'
p1593
S'NP_378658.1'
p1594
sS'253126'
p1595
S'YP_448919.1'
p1596
sS'441163'
p1597
S'NZ_ABBF01000886.1'
p1598
sS'261665'
p1599
S'YP_338074.1'
p1600
sS'360104'
p1601
S'ZP_01926004.1'
p1602
sS'329641'
p1603
S'YP_338089.1'
p1604
sS'447454'
p1605
S'NZ_ABBV01008553.1'
p1606
sS'373862'
p1607
S'YP_802942.1'
p1608
sS'58051'
p1609
S'ZP_01900966.1'
p1610
sS'10366'
p1611
S'YP_214170.1'
p1612
sS'10360'
p1613
S'NP_899644.1'
p1614
sS'416419'
p1615
S'YP_919097.1'
p1616
sS'33059'
p1617
S'NP_835387.1'
p1618
sS'366602'
p1619
S'ZP_01423000.1'
p1620
sS'204440'
p1621
S'YP_214171.1'
p1622
sS'1092'
p1623
S'NP_052165.1'
p1624
sS'54971'
p1625
S'NP_620326.1'
p1626
sS'382538'
p1627
S'YP_615047.1'
p1628
sS'10761'
p1629
S'NP_958242.1'
p1630
sS'10760'
p1631
S'NP_042013.1'
p1632
sS'12211'
p1633
S'NP_734348.1'
p1634
sS'12210'
p1635
S'YP_778468.1'
p1636
sS'113553'
p1637
S'NP_733999.1'
p1638
sS'12216'
p1639
S'NP_734252.1'
p1640
sS'12215'
p1641
S'NP_734368.1'
p1642
sS'128708'
p1643
S'YP_529547.1'
p1644
sS'199361'
p1645
S'NP_862839.1'
p1646
sS'365048'
p1647
S'YP_764511.1'
p1648
sS'391598'
p1649
S'ZP_01735300.1'
p1650
sS'344601'
p1651
S'ZP_00712998.1'
p1652
sS'197783'
p1653
S'NP_813788.1'
p1654
sS'70822'
p1655
S'YP_001285473.1'
p1656
sS'70823'
p1657
S'YP_406376.1'
p1658
sS'211595'
p1659
S'NP_862211.1'
p1660
sS'159957'
p1661
S'NP_739619.1'
p1662
sS'344609'
p1663
S'ZP_00700043.1'
p1664
sS'44689'
p1665
S'NP_050108.1'
p1666
sS'44688'
p1667
S'YP_001098369.1'
p1668
sS'85708'
p1669
S'NP_937957.1'
p1670
sS'137063'
p1671
S'YP_913431.1'
p1672
sS'78395'
p1673
S'NP_840053.1'
p1674
sS'391735'
p1675
S'YP_999719.1'
p1676
sS'38626'
p1677
S'YP_637022.1'
p1678
sS'9767'
p1679
S'NP_944658.1'
p1680
sS'9764'
p1681
S'NP_944645.1'
p1682
sS'203122'
p1683
S'YP_529484.1'
p1684
sS'203123'
p1685
S'YP_811361.1'
p1686
sS'9768'
p1687
S'YP_220757.1'
p1688
sS'9769'
p1689
S'YP_537157.1'
p1690
sS'322866'
p1691
S'ZP_01811410.1'
p1692
sS'270146'
p1693
S'YP_006470.1'
p1694
sS'62313'
p1695
S'YP_448675.1'
p1696
sS'10506'
p1697
S'NP_049048.1'
p1698
sS'9293'
p1699
S'YP_161272.1'
p1700
sS'390975'
p1701
S'YP_842411.1'
p1702
sS'12122'
p1703
S'YP_022777.1'
p1704
sS'211110'
p1705
S'NP_736564.1'
p1706
sS'332176'
p1707
S'YP_254712.1'
p1708
sS'9555'
p1709
S'NT_113349.1'
p1710
sS'293826'
p1711
S'YP_001322527.1'
p1712
sS'70734'
p1713
S'NP_536671.1'
p1714
sS'315749'
p1715
S'YP_001377204.1'
p1716
sS'9557'
p1717
S'NP_008470.1'
p1718
sS'411476'
p1719
S'NZ_AAXF02000054.1'
p1720
sS'11963'
p1721
S'NP_955622.1'
p1722
sS'8853'
p1723
S'YP_238280.1'
p1724
sS'443256'
p1725
S'YP_001382284.1'
p1726
sS'8851'
p1727
S'YP_025987.1'
p1728
sS'198215'
p1729
S'NP_839810.1'
p1730
sS'39088'
p1731
S'YP_778863.1'
p1732
sS'164328'
p1733
S'YP_001165377.1'
p1734
sS'316278'
p1735
S'YP_001228791.1'
p1736
sS'33528'
p1737
S'NP_739840.1'
p1738
sS'386043'
p1739
S'YP_850977.1'
p1740
sS'312284'
p1741
S'ZP_01131643.1'
p1742
sS'316273'
p1743
S'YP_366218.1'
p1744
sS'300879'
p1745
S'YP_233104.1'
p1746
sS'367301'
p1747
S'YP_654556.1'
p1748
sS'280675'
p1749
S'YP_054556.1'
p1750
sS'316274'
p1751
S'ZP_01428160.1'
p1752
sS'219688'
p1753
S'NP_853539.1'
p1754
sS'291270'
p1755
S'YP_077193.1'
p1756
sS'280477'
p1757
S'NZ_AAES01000049.1'
p1758
sS'101742'
p1759
S'NC_003264.1'
p1760
sS'285951'
p1761
S'YP_063710.1'
p1762
sS'285953'
p1763
S'YP_063385.1'
p1764
sS'180816'
p1765
S'NP_817131.1'
p1766
sS'210165'
p1767
S'YP_778902.1'
p1768
sS'5270'
p1769
S'YP_762704.1'
p1770
sS'160057'
p1771
S'NP_620616.1'
p1772
sS'443342'
p1773
S'ZP_01811401.1'
p1774
sS'37191'
p1775
S'YP_778720.1'
p1776
sS'388272'
p1777
S'ZP_01368588.1'
p1778
sS'186637'
p1779
S'NP_619558.1'
p1780
sS'34888'
p1781
S'YP_778733.1'
p1782
sS'157239'
p1783
S'NP_597845.1'
p1784
sS'34882'
p1785
S'YP_001382358.1'
p1786
sS'393133'
p1787
S'ZP_01942554.1'
p1788
sS'37206'
p1789
S'NP_049237.1'
p1790
sS'34886'
p1791
S'NP_659362.1'
p1792
sS'34884'
p1793
S'YP_778694.1'
p1794
sS'40540'
p1795
S'NP_043443.1'
p1796
sS'8148'
p1797
S'YP_001054853.1'
p1798
sS'272551'
p1799
S'YP_238474.1'
p1800
sS'202566'
p1801
S'YP_081454.1'
p1802
sS'272557'
p1803
S'YP_874956.1'
p1804
sS'393131'
p1805
S'ZP_01939754.1'
p1806
sS'365044'
p1807
S'YP_984332.1'
p1808
sS'399804'
p1809
S'ZP_01708094.1'
p1810
sS'272559'
p1811
S'YP_213930.1'
p1812
sS'150340'
p1813
S'ZP_01477379.1'
p1814
sS'229193'
p1815
S'NP_995576.1'
p1816
sS'417400'
p1817
S'ZP_01976989.1'
p1818
sS'178879'
p1819
S'NP_740230.1'
p1820
sS'5518'
p1821
S'YP_001249346.1'
p1822
sS'181447'
p1823
S'NP_739983.1'
p1824
sS'109461'
p1825
S'NP_758885.1'
p1826
sS'82366'
p1827
S'YP_537170.1'
p1828
sS'38289'
p1829
S'NP_862378.1'
p1830
sS'331512'
p1831
S'YP_717667.1'
p1832
sS'28348'
p1833
S'NP_620676.1'
p1834
sS'181445'
p1835
S'NP_739970.1'
p1836
sS'3039'
p1837
S'NP_041953.1'
p1838
sS'34085'
p1839
S'NP_052841.1'
p1840
sS'11103'
p1841
S'NP_803170.1'
p1842
sS'284688'
p1843
S'YP_138539.1'
p1844
sS'3037'
p1845
S'NP_075007.1'
p1846
sS'28344'
p1847
S'NP_740605.1'
p1848
sS'293284'
p1849
S'YP_115514.1'
p1850
sS'219596'
p1851
S'NP_778144.1'
p1852
sS'28347'
p1853
S'NP_044336.1'
p1854
sS'361731'
p1855
S'YP_794173.1'
p1856
sS'229533'
p1857
S'XP_391816.1'
p1858
sS'157837'
p1859
S'NP_734440.1'
p1860
sS'238854'
p1861
S'YP_195273.1'
p1862
sS'47838'
p1863
S'NP_620751.1'
p1864
sS'30611'
p1865
S'NT_108070.2'
p1866
sS'31749'
p1867
S'NP_620844.1'
p1868
sS'31210'
p1869
S'YP_001382332.1'
p1870
sS'189836'
p1871
S'NP_604430.1'
p1872
sS'31744'
p1873
S'NP_736602.1'
p1874
sS'189834'
p1875
S'YP_245425.1'
p1876
sS'31742'
p1877
S'NP_734408.1'
p1878
sS'79736'
p1879
S'NP_008815.1'
p1880
sS'539'
p1881
S'YP_245394.1'
p1882
sS'31741'
p1883
S'NP_734274.1'
p1884
sS'207809'
p1885
S'YP_052690.1'
p1886
sS'74547'
p1887
S'YP_654194.1'
p1888
sS'8036'
p1889
S'NP_008685.1'
p1890
sS'8030'
p1891
S'NP_008457.1'
p1892
sS'266265'
p1893
S'YP_561020.1'
p1894
sS'273075'
p1895
S'NP_394959.1'
p1896
sS'271479'
p1897
S'YP_006438.1'
p1898
sS'118797'
p1899
S'YP_423961.1'
p1900
sS'8038'
p1901
S'NP_008672.1'
p1902
sS'165100'
p1903
S'YP_654314.1'
p1904
sS'360102'
p1905
S'YP_654081.1'
p1906
sS'316106'
p1907
S'YP_443924.1'
p1908
sS'48935'
p1909
S'NP_049234.1'
p1910
sS'27704'
p1911
S'YP_913522.1'
p1912
sS'322067'
p1913
S'YP_338085.1'
p1914
sS'27706'
p1915
S'YP_636069.1'
p1916
sS'360108'
p1917
S'ZP_01070632.1'
p1918
sS'98383'
p1919
S'NP_068338.1'
p1920
sS'402626'
p1921
S'ZP_01665104.1'
p1922
sS'51453'
p1923
S'NP_570160.1'
p1924
sS'307110'
p1925
S'YP_277440.1'
p1926
sS'10796'
p1927
S'NP_757372.1'
p1928
sS'12585'
p1929
S'NP_604483.1'
p1930
sS'391592'
p1931
S'ZP_01872612.1'
p1932
sS'11036'
p1933
S'NP_818994.1'
p1934
sS'212345'
p1935
S'YP_001382232.1'
p1936
sS'11034'
p1937
S'NP_740677.1'
p1938
sS'338124'
p1939
S'YP_512633.1'
p1940
sS'338123'
p1941
S'YP_512622.1'
p1942
sS'11033'
p1943
S'NP_819009.1'
p1944
sS'338121'
p1945
S'YP_512600.1'
p1946
sS'338120'
p1947
S'YP_512589.1'
p1948
sS'59300'
p1949
S'YP_164439.1'
p1950
sS'59301'
p1951
S'NP_740695.1'
p1952
sS'338129'
p1953
S'YP_512688.1'
p1954
sS'11039'
p1955
S'NP_818942.1'
p1956
sS'98794'
p1957
S'NP_047183.1'
p1958
sS'263531'
p1959
S'NC_008714.1'
p1960
sS'222557'
p1961
S'NP_919038.1'
p1962
sS'213769'
p1963
S'YP_764314.1'
p1964
sS'72657'
p1965
S'YP_001123093.1'
p1966
sS'79600'
p1967
S'YP_605814.1'
p1968
sS'111784'
p1969
S'YP_001403167.1'
p1970
sS'208964'
p1971
S'YP_910496.1'
p1972
sS'208963'
p1973
S'YP_794047.1'
p1974
sS'1392'
p1975
S'NP_053239.1'
p1976
sS'207240'
p1977
S'NP_852656.1'
p1978
sS'35269'
p1979
S'NP_944491.1'
p1980
sS'321327'
p1981
S'YP_529508.1'
p1982
sS'170617'
p1983
S'NP_872573.1'
p1984
sS'77133'
p1985
S'YP_654168.1'
p1986
sS'262489'
p1987
S'ZP_01292213.1'
p1988
sS'35593'
p1989
S'NP_042515.1'
p1990
sS'68242'
p1991
S'NP_053439.1'
p1992
sS'428128'
p1993
S'NZ_ABCA01000119.1'
p1994
sS'222456'
p1995
S'NP_795360.1'
p1996
sS'8456'
p1997
S'NP_059962.1'
p1998
sS'368735'
p1999
S'YP_001333653.1'
p2000
sS'8453'
p2001
S'YP_138291.1'
p2002
sS'456327'
p2003
S'NP_862702.1'
p2004
sS'94961'
p2005
S'YP_220705.1'
p2006
sS'12455'
p2007
S'YP_009031.1'
p2008
sS'187272'
p2009
S'YP_743714.1'
p2010
sS'338107'
p2011
S'YP_512448.1'
p2012
sS'12451'
p2013
S'NP_620467.1'
p2014
sS'12450'
p2015
S'NP_044402.1'
p2016
sS'256729'
p2017
S'YP_077167.1'
p2018
sS'242231'
p2019
S'YP_209187.1'
p2020
sS'435258'
p2021
S'XP_001470607.1'
p2022
sS'12458'
p2023
S'NP_619564.1'
p2024
sS'298968'
p2025
S'NC_006455.1'
p2026
sS'298969'
p2027
S'NC_006456.1'
p2028
sS'358709'
p2029
S'ZP_00927369.1'
p2030
sS'35869'
p2031
S'YP_636569.1'
p2032
sS'298966'
p2033
S'YP_143266.1'
p2034
sS'103603'
p2035
S'NP_050585.1'
p2036
sS'298965'
p2037
S'NC_006460.1'
p2038
sS'223317'
p2039
S'NP_808741.1'
p2040
sS'223316'
p2041
S'NP_808899.1'
p2042
sS'223314'
p2043
S'NP_808748.1'
p2044
sS'223313'
p2045
S'NP_808913.1'
p2046
sS'314292'
p2047
S'ZP_01237559.1'
p2048
sS'314291'
p2049
S'ZP_00993370.1'
p2050
sS'232800'
p2051
S'YP_145791.1'
p2052
sS'213236'
p2053
S'NP_943878.1'
p2054
sS'318596'
p2055
S'YP_338043.1'
p2056
sS'423476'
p2057
S'YP_001039951.1'
p2058
sS'300269'
p2059
S'YP_313494.1'
p2060
sS'232802'
p2061
S'YP_209622.1'
p2062
sS'130309'
p2063
S'NP_040881.1'
p2064
sS'130308'
p2065
S'YP_068054.1'
p2066
sS'12730'
p2067
S'NP_604442.1'
p2068
sS'300267'
p2069
S'YP_406225.1'
p2070
sS'6204'
p2071
S'NP_659235.1'
p2072
sS'13679'
p2073
S'YP_636108.1'
p2074
sS'253702'
p2075
S'YP_054411.1'
p2076
sS'253701'
p2077
S'YP_054406.1'
p2078
sS'10995'
p2079
S'NP_690839.1'
p2080
sS'6763'
p2081
S'YP_086840.1'
p2082
sS'13677'
p2083
S'YP_138217.1'
p2084
sS'10990'
p2085
S'NP_620463.1'
p2086
sS'10991'
p2087
S'NP_620545.1'
p2088
sS'329969'
p2089
S'YP_665511.1'
p2090
sS'90313'
p2091
S'YP_961381.1'
p2092
sS'269145'
p2093
S'YP_025024.1'
p2094
sS'5865'
p2095
S'XP_001612318.1'
p2096
sS'329963'
p2097
S'YP_448776.1'
p2098
sS'110662'
p2099
S'YP_654182.1'
p2100
sS'12230'
p2101
S'NP_734222.2'
p2102
sS'301865'
p2103
S'YP_224138.1'
p2104
sS'220664'
p2105
S'YP_263289.1'
p2106
sS'390439'
p2107
S'YP_001285765.1'
p2108
sS'43335'
p2109
S'YP_665620.1'
p2110
sS'45203'
p2111
S'NP_862688.1'
p2112
sS'46473'
p2113
S'YP_337910.1'
p2114
sS'220668'
p2115
S'YP_133757.1'
p2116
sS'12024'
p2117
S'YP_717671.1'
p2118
sS'383631'
p2119
S'ZP_01552689.1'
p2120
sS'12021'
p2121
S'NP_057950.1'
p2122
sS'12022'
p2123
S'NP_040650.1'
p2124
sS'12023'
p2125
S'NP_042307.1'
p2126
sS'120086'
p2127
S'NP_652745.1'
p2128
sS'338103'
p2129
S'YP_512408.1'
p2130
sS'341711'
p2131
S'YP_717919.1'
p2132
sS'259393'
p2133
S'YP_961316.1'
p2134
sS'314345'
p2135
S'ZP_01453778.1'
p2136
sS'363555'
p2137
S'YP_529896.1'
p2138
sS'101510'
p2139
S'YP_709139.1'
p2140
sS'356780'
p2141
S'YP_001218742.1'
p2142
sS'2214'
p2143
S'NP_052172.1'
p2144
sS'139456'
p2145
S'YP_001382120.1'
p2146
sS'248496'
p2147
S'NP_963997.1'
p2148
sS'42005'
p2149
S'YP_459958.1'
p2150
sS'42004'
p2151
S'NP_734102.1'
p2152
sS'77647'
p2153
S'NP_795342.1'
p2154
sS'42552'
p2155
S'NP_818903.1'
p2156
sS'96054'
p2157
S'NP_871727.1'
p2158
sS'181604'
p2159
S'NP_752644.1'
p2160
sS'292477'
p2161
S'YP_717096.1'
p2162
sS'135749'
p2163
S'NC_003826.1'
p2164
sS'161930'
p2165
S'YP_778746.1'
p2166
sS'338102'
p2167
S'YP_512398.1'
p2168
sS'328430'
p2169
S'YP_667842.1'
p2170
sS'146762'
p2171
S'NP_619754.1'
p2172
sS'67780'
p2173
S'NP_061811.1'
p2174
sS'81385'
p2175
S'NP_073676.1'
p2176
sS'53181'
p2177
S'NP_619677.1'
p2178
sS'46218'
p2179
S'NP_789759.1'
p2180
sS'2438'
p2181
S'NP_040395.1'
p2182
sS'64003'
p2183
S'YP_337919.1'
p2184
sS'191547'
p2185
S'NP_734035.1'
p2186
sS'53186'
p2187
S'NC_003881.1'
p2188
sS'335204'
p2189
S'YP_001274393.1'
p2190
sS'141860'
p2191
S'NP_443755.1'
p2192
sS'158'
p2193
S'NP_073756.1'
p2194
sS'325113'
p2195
S'YP_271830.1'
p2196
sS'360107'
p2197
S'YP_001407304.1'
p2198
sS'320388'
p2199
S'YP_994811.1'
p2200
sS'154339'
p2201
S'NP_891571.1'
p2202
sS'441157'
p2203
S'NZ_ABBM01001230.1'
p2204
sS'441156'
p2205
S'NZ_ABBO01001568.1'
p2206
sS'36363'
p2207
S'NP_579903.1'
p2208
sS'441154'
p2209
S'NZ_ABBP01001274.1'
p2210
sS'406563'
p2211
S'ZP_01836615.1'
p2212
sS'243230'
p2213
S'NP_296368.1'
p2214
sS'138677'
p2215
S'NP_301128.1'
p2216
sS'360109'
p2217
S'YP_001399004.1'
p2218
sS'7830'
p2219
S'NP_007626.1'
p2220
sS'306323'
p2221
S'YP_238527.1'
p2222
sS'441159'
p2223
S'NZ_ABBK01001690.1'
p2224
sS'441158'
p2225
S'NZ_ABBL01001762.1'
p2226
sS'12111'
p2227
S'YP_024315.1'
p2228
sS'299467'
p2229
S'YP_398821.1'
p2230
sS'12116'
p2231
S'NP_740514.1'
p2232
sS'82367'
p2233
S'NP_690579.1'
p2234
sS'12118'
p2235
S'NP_740467.1'
p2236
sS'40539'
p2237
S'NP_043429.1'
p2238
sS'411460'
p2239
S'ZP_01969337.1'
p2240
sS'85962'
p2241
S'NP_208381.1'
p2242
sS'411466'
p2243
S'ZP_02045322.1'
p2244
sS'411467'
p2245
S'ZP_02039250.1'
p2246
sS'307111'
p2247
S'YP_271917.1'
p2248
sS'64958'
p2249
S'YP_006464.1'
p2250
sS'6185'
p2251
S'YP_626531.1'
p2252
sS'6183'
p2253
S'NP_066216.2'
p2254
sS'6182'
p2255
S'NP_066364.2'
p2256
sS'11641'
p2257
S'NP_590484.1'
p2258
sS'323259'
p2259
S'YP_504639.1'
p2260
sS'11642'
p2261
S'NP_597745.1'
p2262
sS'6189'
p2263
S'YP_626444.1'
p2264
sS'362242'
p2265
S'YP_908411.1'
p2266
sS'9601'
p2267
S'NP_007847.1'
p2268
sS'9600'
p2269
S'NP_008237.1'
p2270
sS'190304'
p2271
S'NP_604388.1'
p2272
sS'367765'
p2273
S'YP_654327.1'
p2274
sS'53369'
p2275
S'YP_001285387.1'
p2276
sS'9606'
p2277
S'XR_019653.1'
p2278
sS'369257'
p2279
S'YP_919027.1'
p2280
sS'445227'
p2281
S'YP_001285478.1'
p2282
sS'338125'
p2283
S'YP_512644.1'
p2284
sS'262078'
p2285
S'YP_138501.1'
p2286
sS'297246'
p2287
S'YP_125379.1'
p2288
sS'7237'
p2289
S'XP_001382227.1'
p2290
sS'234830'
p2291
S'NP_859030.1'
p2292
sS'7943'
p2293
S'NP_114236.1'
p2294
sS'10372'
p2295
S'YP_495283.1'
p2296
sS'39803'
p2297
S'NP_046752.1'
p2298
sS'297249'
p2299
S'YP_764454.1'
p2300
sS'173976'
p2301
S'NP_734017.2'
p2302
sS'439855'
p2303
S'NZ_ABAQ01000059.1'
p2304
sS'232237'
p2305
S'NP_859007.1'
p2306
sS'406340'
p2307
S'YP_001165300.1'
p2308
sS'8996'
p2309
S'YP_133820.1'
p2310
sS'121285'
p2311
S'NP_990975.1'
p2312
sS'320579'
p2313
S'YP_525476.1'
p2314
sS'9514'
p2315
S'NP_114333.1'
p2316
sS'270140'
p2317
S'YP_006427.1'
p2318
sS'12208'
p2319
S'NP_734428.1'
p2320
sS'12209'
p2321
S'NP_734438.1'
p2322
sS'134554'
p2323
S'NP_690819.1'
p2324
sS'12205'
p2325
S'NP_734242.1'
p2326
sS'10778'
p2327
S'NP_690651.1'
p2328
sS'192452'
p2329
S'NP_734398.1'
p2330
sS'12202'
p2331
S'NP_734162.1'
p2332
sS'12203'
p2333
S'NP_734152.1'
p2334
sS'10565'
p2335
S'NP_041315.1'
p2336
sS'211586'
p2337
S'YP_908863.1'
p2338
sS'40151'
p2339
S'NP_944762.1'
p2340
sS'272943'
p2341
S'YP_355326.1'
p2342
sS'272944'
p2343
S'NP_361011.1'
p2344
sS'272947'
p2345
S'NP_221231.1'
p2346
sS'376758'
p2347
S'YP_001285624.1'
p2348
sS'10519'
p2349
S'AP_000570.1'
p2350
sS'37696'
p2351
S'YP_003712.1'
p2352
sS'359919'
p2353
S'YP_001257087.1'
p2354
sS'37694'
p2355
S'YP_025465.1'
p2356
sS'10512'
p2357
S'AP_000075.1'
p2358
sS'38616'
p2359
S'YP_637035.1'
p2360
sS'10510'
p2361
S'AP_000044.1'
p2362
sS'37699'
p2363
S'YP_161259.1'
p2364
sS'9771'
p2365
S'NP_007068.1'
p2366
sS'9770'
p2367
S'NP_006901.1'
p2368
sS'9773'
p2369
S'YP_220731.1'
p2370
sS'10515'
p2371
S'AP_000196.1'
p2372
sS'142102'
p2373
S'NP_149058.1'
p2374
sS'80972'
p2375
S'YP_001054879.1'
p2376
sS'218496'
p2377
S'NP_789738.1'
p2378
sS'410359'
p2379
S'YP_001057055.1'
p2380
sS'143401'
p2381
S'YP_272001.1'
p2382
sS'172220'
p2383
S'NP_395473.1'
p2384
sS'290412'
p2385
S'YP_973127.1'
p2386
sS'406562'
p2387
S'ZP_01834199.1'
p2388
sS'400673'
p2389
S'YP_001252552.1'
p2390
sS'9280'
p2391
S'YP_423974.1'
p2392
sS'71186'
p2393
S'YP_001294918.1'
p2394
sS'312153'
p2395
S'YP_001156863.1'
p2396
sS'320373'
p2397
S'YP_001064285.1'
p2398
sS'292627'
p2399
S'YP_224228.1'
p2400
sS'320371'
p2401
S'ZP_01214858.1'
p2402
sS'332423'
p2403
S'YP_659550.1'
p2404
sS'184922'
p2405
S'XP_779895.1'
p2406
sS'10244'
p2407
S'NP_536618.1'
p2408
sS'320374'
p2409
S'ZP_01331849.1'
p2410
sS'148607'
p2411
S'NP_148763.1'
p2412
sS'36100'
p2413
S'YP_026078.1'
p2414
sS'441165'
p2415
S'NZ_ABBD01000810.1'
p2416
sS'148603'
p2417
S'NP_075353.1'
p2418
sS'371401'
p2419
S'YP_665626.1'
p2420
sS'817'
p2421
S'NP_863650.1'
p2422
sS'33559'
p2423
S'YP_003725.1'
p2424
sS'227321'
p2425
S'XP_868923.1'
p2426
sS'326297'
p2427
S'YP_929527.1'
p2428
sS'290398'
p2429
S'YP_575362.1'
p2430
sS'76343'
p2431
S'NP_612603.1'
p2432
sS'2850'
p2433
S'YP_874489.1'
p2434
sS'257468'
p2435
S'YP_164520.1'
p2436
sS'399741'
p2437
S'ZP_01538885.1'
p2438
sS'453591'
p2439
S'YP_001436025.1'
p2440
sS'33556'
p2441
S'YP_220718.1'
p2442
sS'243161'
p2443
S'NP_297293.1'
p2444
sS'53412'
p2445
S'NP_758731.1'
p2446
sS'1496'
p2447
S'NP_957547.1'
p2448
sS'345573'
p2449
S'YP_637113.1'
p2450
sS'129395'
p2451
S'NP_068550.1'
p2452
sS'299768'
p2453
S'YP_142349.1'
p2454
sS'295405'
p2455
S'YP_101861.1'
p2456
sS'155864'
p2457
S'YP_325660.1'
p2458
sS'1703'
p2459
S'NP_065272.1'
p2460
sS'388919'
p2461
S'YP_001036290.1'
p2462
sS'373404'
p2463
S'YP_656231.1'
p2464
sS'262805'
p2465
S'YP_001419675.1'
p2466
sS'384359'
p2467
S'YP_863919.1'
p2468
sS'192584'
p2469
S'NP_663295.1'
p2470
sS'195102'
p2471
S'YP_001293879.1'
p2472
sS'195103'
p2473
S'YP_697351.1'
p2474
sS'243550'
p2475
S'YP_213938.1'
p2476
sS'37961'
p2477
S'NP_604476.1'
p2478
sS'454165'
p2479
S'NZ_ABEJ01000067.1'
p2480
sS'261530'
p2481
S'NP_958778.1'
p2482
sS'272831'
p2483
S'YP_976063.1'
p2484
sS'351160'
p2485
S'YP_687594.1'
p2486
sS'365052'
p2487
S'YP_001293826.1'
p2488
sS'85097'
p2489
S'YP_637100.1'
p2490
sS'156992'
p2491
S'YP_626568.1'
p2492
sS'407837'
p2493
S'YP_803223.1'
p2494
sS'365059'
p2495
S'YP_001293696.1'
p2496
sS'30993'
p2497
S'YP_133807.1'
p2498
sS'1126'
p2499
S'NP_862696.1'
p2500
sS'11137'
p2501
S'NP_835358.1'
p2502
sS'404218'
p2503
S'NZ_AAYR01000098.1'
p2504
sS'307240'
p2505
S'YP_224129.1'
p2506
sS'400835'
p2507
S'YP_764448.1'
p2508
sS'291331'
p2509
S'YP_203276.1'
p2510
sS'382540'
p2511
S'YP_615059.1'
p2512
sS'291364'
p2513
S'NP_775410.1'
p2514
sS'132264'
p2515
S'YP_195276.1'
p2516
sS'321956'
p2517
S'YP_813855.1'
p2518
sS'386415'
p2519
S'YP_879298.1'
p2520
sS'103690'
p2521
S'YP_227688.1'
p2522
sS'405955'
p2523
S'YP_860085.1'
p2524
sS'71548'
p2525
S'NP_045945.1'
p2526
sS'143526'
p2527
S'YP_001165455.1'
p2528
sS'39568'
p2529
S'YP_913392.1'
p2530
sS'29137'
p2531
S'NP_536770.1'
p2532
sS'29139'
p2533
S'NP_542255.1'
p2534
sS'87626'
p2535
S'ZP_01136147.1'
p2536
sS'31312'
p2537
S'YP_665681.1'
p2538
sS'416348'
p2539
S'ZP_02017238.1'
p2540
sS'2986'
p2541
S'NP_066453.1'
p2542
sS'29017'
p2543
S'YP_025749.1'
p2544
sS'88728'
p2545
S'YP_001152269.1'
p2546
sS'520'
p2547
S'YP_787966.1'
p2548
sS'30608'
p2549
S'NT_166774.1'
p2550
sS'198541'
p2551
S'NP_795604.1'
p2552
sS'31770'
p2553
S'NP_620653.1'
p2554
sS'393117'
p2555
S'NZ_AARJ01000044.1'
p2556
sS'77344'
p2557
S'NP_038458.1'
p2558
sS'8517'
p2559
S'NP_115848.1'
p2560
sS'34504'
p2561
S'NP_063967.2'
p2562
sS'217509'
p2563
S'YP_087043.1'
p2564
sS'198543'
p2565
S'NP_795710.1'
p2566
sS'233413'
p2567
S'NP_857590.1'
p2568
sS'145579'
p2569
S'NP_073547.1'
p2570
sS'375177'
p2571
S'ZP_01789736.1'
p2572
sS'8049'
p2573
S'NP_008620.1'
p2574
sS'28399'
p2575
S'YP_053132.1'
p2576
sS'198542'
p2577
S'NP_795659.1'
p2578
sS'35052'
p2579
S'NP_957767.1'
p2580
sS'11665'
p2581
S'NP_056904.1'
p2582
sS'229278'
p2583
S'NP_041236.2'
p2584
sS'8519'
p2585
S'YP_044751.1'
p2586
sS'147711'
p2587
S'NP_740401.1'
p2588
sS'147712'
p2589
S'NP_740525.1'
p2590
sS'27717'
p2591
S'YP_913340.1'
p2592
sS'465517'
p2593
S'NZ_ABFH01000073.1'
p2594
sS'360118'
p2595
S'ZP_01337440.1'
p2596
sS'360117'
p2597
S'NZ_AAYJ01000148.1'
p2598
sS'360116'
p2599
S'ZP_01947695.1'
p2600
sS'360115'
p2601
S'ZP_01310953.1'
p2602
sS'405917'
p2603
S'NZ_ABCZ01000146.1'
p2604
sS'306537'
p2605
S'YP_251904.1'
p2606
sS'12844'
p2607
S'NP_734318.1'
p2608
sS'322053'
p2609
S'YP_529499.1'
p2610
sS'205876'
p2611
S'NP_955484.1'
p2612
sS'11002'
p2613
S'NP_047197.1'
p2614
sS'205874'
p2615
S'NP_817851.1'
p2616
sS'205875'
p2617
S'NP_817973.1'
p2618
sS'205872'
p2619
S'NP_817761.1'
p2620
sS'205870'
p2621
S'NP_817677.1'
p2622
sS'136490'
p2623
S'NP_950221.1'
p2624
sS'377628'
p2625
S'YP_649914.1'
p2626
sS'11008'
p2627
S'NP_620495.1'
p2628
sS'209882'
p2629
S'ZP_00145363.1'
p2630
sS'59376'
p2631
S'YP_874319.1'
p2632
sS'38143'
p2633
S'NP_742092.1'
p2634
sS'38142'
p2635
S'NP_919035.1'
p2636
sS'106881'
p2637
S'YP_220653.1'
p2638
sS'374931'
p2639
S'YP_001293179.1'
p2640
sS'438'
p2641
S'NP_862728.1'
p2642
sS'111792'
p2643
S'NP_039239.1'
p2644
sS'35128'
p2645
S'YP_874630.1'
p2646
sS'435'
p2647
S'NP_052128.1'
p2648
sS'388739'
p2649
S'ZP_01757081.1'
p2650
sS'111970'
p2651
S'NP_619687.1'
p2652
sS'272558'
p2653
S'NP_244934.1'
p2654
sS'373250'
p2655
S'YP_001293787.1'
p2656
sS'181459'
p2657
S'YP_636970.1'
p2658
sS'130930'
p2659
S'YP_026103.1'
p2660
sS'34612'
p2661
S'NP_008509.1'
p2662
sS'338116'
p2663
S'YP_512545.1'
p2664
sS'34615'
p2665
S'NP_739606.1'
p2666
sS'8469'
p2667
S'NP_008776.1'
p2668
sS'47000'
p2669
S'NP_740383.1'
p2670
sS'47001'
p2671
S'NP_740371.1'
p2672
sS'136300'
p2673
S'NP_076868.1'
p2674
sS'51022'
p2675
S'NP_579955.2'
p2676
sS'338139'
p2677
S'YP_512798.1'
p2678
sS'6431'
p2679
S'YP_133783.1'
p2680
sS'181412'
p2681
S'YP_636905.1'
p2682
sS'48850'
p2683
S'NP_659388.1'
p2684
sS'150284'
p2685
S'NP_044576.1'
p2686
sS'263375'
p2687
S'NP_996659.1'
p2688
sS'225757'
p2689
S'YP_001293472.1'
p2690
sS'258594'
p2691
S'NP_950208.1'
p2692
sS'207830'
p2693
S'NP_613252.1'
p2694
sS'207343'
p2695
S'NP_044932.1'
p2696
sS'214982'
p2697
S'YP_654366.1'
p2698
sS'225752'
p2699
S'NP_808772.1'
p2700
sS'298971'
p2701
S'NC_006454.1'
p2702
sS'7552'
p2703
S'NP_071851.1'
p2704
sS'298973'
p2705
S'NC_006459.1'
p2706
sS'425303'
p2707
S'YP_001040016.1'
p2708
sS'194699'
p2709
S'NP_958719.1'
p2710
sS'28882'
p2711
S'NP_620728.1'
p2712
sS'32619'
p2713
S'NP_734092.1'
p2714
sS'132475'
p2715
S'NP_597934.1'
p2716
sS'367110'
p2717
S'XP_965837.1'
p2718
sS'261078'
p2719
S'YP_254635.1'
p2720
sS'180230'
p2721
S'YP_001096199.1'
p2722
sS'103832'
p2723
S'YP_163984.1'
p2724
sS'241363'
p2725
S'YP_001054827.1'
p2726
sS'261076'
p2727
S'YP_271988.1'
p2728
sS'32612'
p2729
S'YP_425092.1'
p2730
sS'347536'
p2731
S'YP_001382409.1'
p2732
sS'420662'
p2733
S'YP_001023646.1'
p2734
sS'154580'
p2735
S'YP_097179.1'
p2736
sS'189538'
p2737
S'NP_702987.1'
p2738
sS'110195'
p2739
S'NP_937967.1'
p2740
sS'13642'
p2741
S'YP_209613.1'
p2742
sS'4770'
p2743
S'YP_052924.1'
p2744
sS'88556'
p2745
S'YP_086827.1'
p2746
sS'81578'
p2747
S'NP_957780.2'
p2748
sS'242395'
p2749
S'YP_850990.1'
p2750
sS'327405'
p2751
S'YP_913405.1'
p2752
sS'279896'
p2753
S'YP_052855.1'
p2754
sS'4177'
p2755
S'NP_054398.1'
p2756
sS'51359'
p2757
S'YP_842372.1'
p2758
sS'131083'
p2759
S'NP_620489.1'
p2760
sS'131082'
p2761
S'NP_114364.2'
p2762
sS'224378'
p2763
S'YP_025948.1'
p2764
sS'184020'
p2765
S'NP_733850.1'
p2766
sS'338115'
p2767
S'YP_512534.1'
p2768
sS'320841'
p2769
S'YP_240226.1'
p2770
sS'9940'
p2771
S'NP_008418.1'
p2772
sS'399781'
p2773
S'YP_001426481.1'
p2774
sS'425011'
p2775
S'XP_001402538.1'
p2776
sS'320840'
p2777
S'YP_240149.1'
p2778
sS'5811'
p2779
S'NP_044570.1'
p2780
sS'51337'
p2781
S'NP_955678.1'
p2782
sS'51336'
p2783
S'NP_624353.1'
p2784
sS'51330'
p2785
S'NP_851780.1'
p2786
sS'224578'
p2787
S'NP_813794.1'
p2788
sS'46448'
p2789
S'NP_066186.1'
p2790
sS'181455'
p2791
S'NP_740035.1'
p2792
sS'32051'
p2793
S'YP_001226256.1'
p2794
sS'60925'
p2795
S'NP_044944.1'
p2796
sS'278069'
p2797
S'YP_015697.1'
p2798
sS'194439'
p2799
S'NP_663158.1'
p2800
sS'333146'
p2801
S'ZP_01709990.1'
p2802
sS'128941'
p2803
S'NP_817119.1'
p2804
sS'12055'
p2805
S'NP_056829.1'
p2806
sS'239'
p2807
S'NP_052877.1'
p2808
sS'92963'
p2809
S'NP_808783.1'
p2810
sS'12056'
p2811
S'NP_608316.1'
p2812
sS'359786'
p2813
S'YP_001248087.1'
p2814
sS'359787'
p2815
S'YP_001317902.1'
p2816
sS'231028'
p2817
S'YP_145530.1'
p2818
sS'391896'
p2819
S'ZP_01380732.1'
p2820
sS'312309'
p2821
S'YP_207185.1'
p2822
sS'208177'
p2823
S'NP_690102.1'
p2824
sS'56780'
p2825
S'YP_463215.1'
p2826
sS'279272'
p2827
S'YP_254686.1'
p2828
sS'249151'
p2829
S'YP_025290.1'
p2830
sS'198503'
p2831
S'AP_000298.1'
p2832
sS'161921'
p2833
S'YP_778759.1'
p2834
sS'81370'
p2835
S'NP_443306.1'
p2836
sS'298650'
p2837
S'YP_133835.1'
p2838
sS'273068'
p2839
S'NP_624301.1'
p2840
sS'330879'
p2841
S'XP_756147.1'
p2842
sS'340099'
p2843
S'ZP_00779896.1'
p2844
sS'10835'
p2845
S'NP_047254.1'
p2846
sS'10834'
p2847
S'NP_542350.1'
p2848
sS'10837'
p2849
S'NP_040965.1'
p2850
sS'10836'
p2851
S'NP_620492.1'
p2852
sS'10831'
p2853
S'NP_077738.1'
p2854
sS'10830'
p2855
S'NP_620727.1'
p2856
sS'52224'
p2857
S'YP_044738.1'
p2858
sS'10832'
p2859
S'NP_658996.1'
p2860
sS'299325'
p2861
S'YP_514748.1'
p2862
sS'317655'
p2863
S'YP_618224.1'
p2864
sS'10839'
p2865
S'NP_660086.1'
p2866
sS'10838'
p2867
S'NP_047226.1'
p2868
sS'227470'
p2869
S'NP_944230.1'
p2870
sS'5145'
p2871
S'NP_074961.1'
p2872
sS'53179'
p2873
S'YP_001331035.1'
p2874
sS'391643'
p2875
S'YP_001129528.1'
p2876
sS'376686'
p2877
S'YP_001197374.1'
p2878
sS'36370'
p2879
S'NP_042691.1'
p2880
sS'13477'
p2881
S'YP_636030.1'
p2882
sS'178876'
p2883
S'NP_705918.1'
p2884
sS'332172'
p2885
S'YP_913353.1'
p2886
sS'215167'
p2887
S'YP_240000.1'
p2888
sS'411479'
p2889
S'NZ_AAYH02000049.1'
p2890
sS'64495'
p2891
S'YP_203313.1'
p2892
sS'105751'
p2893
S'YP_001220615.1'
p2894
sS'45406'
p2895
S'YP_803212.1'
p2896
sS'379892'
p2897
S'YP_717538.1'
p2898
sS'338111'
p2899
S'YP_512490.1'
p2900
sS'411470'
p2901
S'ZP_02043163.1'
p2902
sS'411477'
p2903
S'ZP_02034417.1'
p2904
sS'298967'
p2905
S'NC_006453.1'
p2906
sS'52598'
p2907
S'ZP_00957059.1'
p2908
sS'326424'
p2909
S'YP_717010.1'
p2910
sS'2538'
p2911
S'NP_040387.1'
p2912
sS'57251'
p2913
S'YP_025961.1'
p2914
sS'326423'
p2915
S'YP_001423372.1'
p2916
sS'219704'
p2917
S'NP_852781.1'
p2918
sS'56094'
p2919
S'YP_398639.1'
p2920
sS'11657'
p2921
S'NP_040566.1'
p2922
sS'280699'
p2923
S'NP_849141.1'
p2924
sS'2535'
p2925
S'NP_040355.1'
p2926
sS'2711'
p2927
S'YP_740543.1'
p2928
sS'52775'
p2929
S'NP_054670.1'
p2930
sS'9368'
p2931
S'NT_166726.1'
p2932
sS'339670'
p2933
S'YP_778467.1'
p2934
sS'9365'
p2935
S'NP_008612.1'
p2936
sS'9361'
p2937
S'NT_166620.1'
p2938
sS'7957'
p2939
S'NP_008600.1'
p2940
sS'443906'
p2941
S'YP_001223723.1'
p2942
sS'7955'
p2943
S'XR_030145.1'
p2944
sS'64308'
p2945
S'YP_001040005.1'
p2946
sS'197771'
p2947
S'NP_663767.1'
p2948
sS'7227'
p2949
S'NW_632844.1'
p2950
sS'7226'
p2951
S'NP_987119.1'
p2952
sS'64304'
p2953
S'YP_001040004.1'
p2954
sS'10690'
p2955
S'NP_597838.1'
p2956
sS'64300'
p2957
S'NP_775675.1'
p2958
sS'198507'
p2959
S'YP_913457.1'
p2960
sS'10345'
p2961
S'YP_068405.1'
p2962
sS'1833'
p2963
S'YP_077174.1'
p2964
sS'218497'
p2965
S'YP_220364.1'
p2966
sS'422288'
p2967
S'ZP_01998434.1'
p2968
sS'314290'
p2969
S'ZP_01067159.1'
p2970
sS'2504'
p2971
S'NP_044311.1'
p2972
sS'392917'
p2973
S'NZ_AARF01000646.1'
p2974
sS'6248'
p2975
S'NP_937907.1'
p2976
sS'2155'
p2977
S'NC_002100.1'
p2978
sS'344971'
p2979
S'YP_656492.1'
p2980
sS'344970'
p2981
S'YP_656486.1'
p2982
sS'445335'
p2983
S'NZ_ABDO01000070.1'
p2984
sS'46221'
p2985
S'NP_065679.1'
p2986
sS'10747'
p2987
S'NP_044840.1'
p2988
sS'163164'
p2989
S'NP_967030.1'
p2990
sS'12273'
p2991
S'NP_734052.1'
p2992
sS'445334'
p2993
S'NZ_ABDU01000084.1'
p2994
sS'36772'
p2995
S'NP_620701.1'
p2996
sS'12274'
p2997
S'NP_734040.3'
p2998
sS'62688'
p2999
S'NP_862206.1'
p3000
sS'10522'
p3001
S'AP_000607.1'
p3002
sS'33726'
p3003
S'NP_620378.1'
p3004
sS'33724'
p3005
S'NP_619784.1'
p3006
sS'218491'
p3007
S'YP_052604.1'
p3008
sS'190192'
p3009
S'NP_614974.1'
p3010
sS'11830'
p3011
S'NP_955598.1'
p3012
sS'122587'
p3013
S'NP_284921.1'
p3014
sS'229634'
p3015
S'NP_955748.1'
p3016
sS'292805'
p3017
S'YP_198639.1'
p3018
sS'400567'
p3019
S'YP_762675.1'
p3020
sS'226051'
p3021
S'YP_001123792.1'
p3022
sS'9704'
p3023
S'YP_778707.1'
p3024
sS'441155'
p3025
S'NZ_ABBN01001424.1'
p3026
sS'78245'
p3027
S'YP_001419662.1'
p3028
sS'37429'
p3029
S'YP_209614.1'
p3030
sS'170187'
p3031
S'ZP_01409503.1'
p3032
sS'211464'
p3033
S'NP_862045.1'
p3034
sS'3240'
p3035
S'NP_569706.1'
p3036
sS'12305'
p3037
S'NP_619631.1'
p3038
sS'377618'
p3039
S'YP_529670.1'
p3040
sS'85655'
p3041
S'YP_656787.1'
p3042
sS'36977'
p3043
S'YP_054495.1'
p3044
sS'12301'
p3045
S'NP_659000.1'
p3046
sS'85652'
p3047
S'NP_048060.1'
p3048
sS'12303'
p3049
S'NP_613278.1'
p3050
sS'12302'
p3051
S'NP_041199.1'
p3052
sS'195061'
p3053
S'NC_003850.1'
p3054
sS'199587'
p3055
S'NP_665675.1'
p3056
sS'11908'
p3057
S'NP_955621.1'
p3058
sS'11909'
p3059
S'NP_954569.1'
p3060
sS'341053'
p3061
S'YP_512254.1'
p3062
sS'820'
p3063
S'YP_133705.1'
p3064
sS'59816'
p3065
S'YP_899471.1'
p3066
sS'59817'
p3067
S'NP_619574.1'
p3068
sS'316057'
p3069
S'YP_571538.1'
p3070
sS'316056'
p3071
S'YP_534784.1'
p3072
sS'33548'
p3073
S'YP_214965.1'
p3074
sS'12907'
p3075
S'NC_003611.1'
p3076
sS'12906'
p3077
S'NC_001651.1'
p3078
sS'12904'
p3079
S'NC_001920.1'
p3080
sS'12901'
p3081
S'NC_003538.1'
p3082
sS'316058'
p3083
S'YP_488306.1'
p3084
sS'167934'
p3085
S'YP_138304.1'
p3086
sS'213775'
p3087
S'YP_764363.1'
p3088
sS'27828'
p3089
S'NP_851334.1'
p3090
sS'167933'
p3091
S'YP_138278.1'
p3092
sS'216596'
p3093
S'YP_771667.1'
p3094
sS'7038'
p3095
S'YP_086814.1'
p3096
sS'441153'
p3097
S'NZ_ABBQ01001077.1'
p3098
sS'291175'
p3099
S'YP_077280.1'
p3100
sS'71972'
p3101
S'NP_612613.1'
p3102
sS'208973'
p3103
S'YP_022513.1'
p3104
sS'1717'
p3105
S'NP_863191.1'
p3106
sS'1718'
p3107
S'NP_899667.1'
p3108
sS'63330'
p3109
S'NP_047113.2'
p3110
sS'129143'
p3111
S'NP_059943.1'
p3112
sS'138119'
p3113
S'YP_521293.1'
p3114
sS'283373'
p3115
S'YP_313758.1'
p3116
sS'167539'
p3117
S'YP_680421.1'
p3118
sS'192022'
p3119
S'NP_647575.1'
p3120
sS'71757'
p3121
S'YP_636056.1'
p3122
sS'391625'
p3123
S'ZP_01913561.1'
p3124
sS'83544'
p3125
S'NP_059515.1'
p3126
sS'37733'
p3127
S'NP_733826.1'
p3128
sS'192023'
p3129
S'NP_659007.1'
p3130
sS'226185'
p3131
S'NP_817083.1'
p3132
sS'182082'
p3133
S'NP_877389.1'
p3134
sS'37737'
p3135
S'YP_161246.1'
p3136
sS'226186'
p3137
S'NP_818991.1'
p3138
sS'334015'
p3139
S'YP_588095.1'
p3140
sS'382639'
p3141
S'YP_709203.1'
p3142
sS'156987'
p3143
S'YP_626555.1'
p3144
sS'10617'
p3145
S'NP_040895.1'
p3146
sS'357809'
p3147
S'ZP_01355471.1'
p3148
sS'357808'
p3149
S'YP_001278910.1'
p3150
sS'208435'
p3151
S'NP_689160.1'
p3152
sS'1131'
p3153
S'NC_001974.1'
p3154
sS'10616'
p3155
S'NP_041837.1'
p3156
sS'263793'
p3157
S'NP_981941.1'
p3158
sS'11120'
p3159
S'NP_740634.1'
p3160
sS'6253'
p3161
S'NP_006952.1'
p3162
sS'348776'
p3163
S'ZP_00880328.1'
p3164
sS'114429'
p3165
S'AP_000020.1'
p3166
sS'416168'
p3167
S'YP_918982.1'
p3168
sS'12263'
p3169
S'NP_734012.1'
p3170
sS'11128'
p3171
S'NP_742170.1'
p3172
sS'273121'
p3173
S'NP_908317.1'
p3174
sS'615'
p3175
S'NP_941370.1'
p3176
sS'12260'
p3177
S'NP_734074.1'
p3178
sS'59563'
p3179
S'YP_001040006.1'
p3180
sS'451707'
p3181
S'NZ_ABDK01000116.1'
p3182
sS'388630'
p3183
S'YP_654379.1'
p3184
sS'295090'
p3185
S'YP_224020.1'
p3186
sS'439375'
p3187
S'YP_001373360.1'
p3188
sS'139870'
p3189
S'NP_958601.1'
p3190
sS'174178'
p3191
S'NP_569156.1'
p3192
sS'161494'
p3193
S'YP_611161.1'
p3194
sS'194445'
p3195
S'NP_659398.1'
p3196
sS'196690'
p3197
S'NP_898834.1'
p3198
sS'366686'
p3199
S'YP_460025.1'
p3200
sS'331109'
p3201
S'ZP_01320558.1'
p3202
sS'10756'
p3203
S'NP_040740.1'
p3204
sS'29385'
p3205
S'YP_415518.1'
p3206
sS'83878'
p3207
S'YP_001054814.1'
p3208
sS'8501'
p3209
S'YP_637139.1'
p3210
sS'62324'
p3211
S'YP_626479.1'
p3212
sS'8502'
p3213
S'YP_637152.1'
p3214
sS'411459'
p3215
S'ZP_01966462.1'
p3216
sS'8056'
p3217
S'YP_313667.1'
p3218
sS'624'
p3219
S'YP_783832.1'
p3220
sS'8508'
p3221
S'NP_852162.1'
p3222
sS'262316'
p3223
S'NP_963284.1'
p3224
sS'8058'
p3225
S'YP_313654.1'
p3226
sS'416276'
p3227
S'NZ_AAVR01000001.1'
p3228
sS'30385'
p3229
S'NP_008711.1'
p3230
sS'8790'
p3231
S'NP_115440.1'
p3232
sS'5660'
p3233
S'XP_001569349.1'
p3234
sS'114424'
p3235
S'NP_597930.1'
p3236
sS'8296'
p3237
S'NP_990988.1'
p3238
sS'447600'
p3239
S'YP_001285936.1'
p3240
sS'8298'
p3241
S'YP_097075.1'
p3242
sS'46350'
p3243
S'NP_043941.1'
p3244
sS'137556'
p3245
S'YP_459924.1'
p3246
sS'338140'
p3247
S'YP_512809.1'
p3248
sS'266835'
p3249
S'YP_178029.1'
p3250
sS'266834'
p3251
S'NP_438110.1'
p3252
sS'406327'
p3253
S'YP_001324205.1'
p3254
sS'2885'
p3255
S'NP_150429.1'
p3256
sS'28708'
p3257
S'YP_588195.1'
p3258
sS'319795'
p3259
S'YP_605808.1'
p3260
sS'398066'
p3261
S'YP_001429576.1'
p3262
sS'349102'
p3263
S'YP_001170550.1'
p3264
sS'152177'
p3265
S'YP_001294929.1'
p3266
sS'205868'
p3267
S'NP_817450.1'
p3268
sS'272136'
p3269
S'NP_862591.1'
p3270
sS'47253'
p3271
S'NP_044326.1'
p3272
sS'451709'
p3273
S'NZ_ABDM01000087.1'
p3274
sS'77803'
p3275
S'YP_636095.1'
p3276
sS'11048'
p3277
S'YP_001008394.1'
p3278
sS'203119'
p3279
S'YP_001039626.1'
p3280
sS'267835'
p3281
S'YP_087056.1'
p3282
sS'373249'
p3283
S'YP_001293761.1'
p3284
sS'126353'
p3285
S'NP_739814.1'
p3286
sS'127511'
p3287
S'YP_031692.1'
p3288
sS'393034'
p3289
S'YP_665627.1'
p3290
sS'245101'
p3291
S'YP_138519.1'
p3292
sS'412663'
p3293
S'YP_001122899.1'
p3294
sS'47692'
p3295
S'YP_514603.1'
p3296
sS'8479'
p3297
S'NP_008561.1'
p3298
sS'306254'
p3299
S'ZP_00371128.1'
p3300
sS'435298'
p3301
S'YP_001274390.1'
p3302
sS'324831'
p3303
S'YP_819591.1'
p3304
sS'12472'
p3305
S'NP_736581.1'
p3306
sS'12470'
p3307
S'NP_736596.1'
p3308
sS'12475'
p3309
S'NP_597693.1'
p3310
sS'12474'
p3311
S'NP_040949.1'
p3312
sS'442346'
p3313
S'NZ_ABAH01000018.1'
p3314
sS'8187'
p3315
S'YP_337810.1'
p3316
sS'151528'
p3317
S'NP_570390.1'
p3318
sS'184242'
p3319
S'YP_001425510.1'
p3320
sS'7764'
p3321
S'NP_127476.1'
p3322
sS'364745'
p3323
S'YP_654537.1'
p3324
sS'1923'
p3325
S'NP_044357.1'
p3326
sS'373405'
p3327
S'YP_655680.1'
p3328
sS'336407'
p3329
S'YP_538599.1'
p3330
sS'373407'
p3331
S'YP_655582.1'
p3332
sS'373406'
p3333
S'YP_654996.1'
p3334
sS'373409'
p3335
S'YP_655196.1'
p3336
sS'373408'
p3337
S'YP_655096.1'
p3338
sS'359504'
p3339
S'YP_778642.1'
p3340
sS'9978'
p3341
S'NP_958777.1'
p3342
sS'7769'
p3343
S'NP_073285.1'
p3344
sS'338966'
p3345
S'YP_903275.1'
p3346
sS'130327'
p3347
S'NP_955758.1'
p3348
sS'68570'
p3349
S'YP_170702.1'
p3350
sS'117198'
p3351
S'NP_808787.1'
p3352
sS'227137'
p3353
S'NP_817106.1'
p3354
sS'103807'
p3355
S'NP_543110.1'
p3356
sS'32603'
p3357
S'NP_043002.1'
p3358
sS'107832'
p3359
S'NC_004983.1'
p3360
sS'292052'
p3361
S'YP_086755.1'
p3362
sS'32604'
p3363
S'NP_597817.1'
p3364
sS'130328'
p3365
S'NP_044726.1'
p3366
sS'1928'
p3367
S'NP_851563.1'
p3368
sS'28873'
p3369
S'NP_570601.1'
p3370
sS'28871'
p3371
S'YP_717532.1'
p3372
sS'13658'
p3373
S'YP_913165.1'
p3374
sS'260819'
p3375
S'YP_026013.1'
p3376
sS'88671'
p3377
S'NP_739853.1'
p3378
sS'73036'
p3379
S'YP_338262.1'
p3380
sS'259898'
p3381
S'YP_024976.1'
p3382
sS'266495'
p3383
S'YP_087069.1'
p3384
sS'335543'
p3385
S'YP_848203.1'
p3386
sS'11246'
p3387
S'NP_048058.1'
p3388
sS'411248'
p3389
S'YP_873920.1'
p3390
sS'11242'
p3391
S'YP_087126.2'
p3392
sS'35246'
p3393
S'YP_001092132.1'
p3394
sS'35244'
p3395
S'NP_954964.1'
p3396
sS'355246'
p3397
S'YP_399019.1'
p3398
sS'35241'
p3399
S'NP_108735.1'
p3400
sS'57242'
p3401
S'YP_025974.1'
p3402
sS'5802'
p3403
S'NP_852648.1'
p3404
sS'51324'
p3405
S'YP_684410.1'
p3406
sS'100226'
p3407
S'NP_733757.1'
p3408
sS'181443'
p3409
S'NP_739957.1'
p3410
sS'181440'
p3411
S'NP_739944.1'
p3412
sS'39046'
p3413
S'NP_042699.1'
p3414
sS'201'
p3415
S'YP_572064.1'
p3416
sS'247633'
p3417
S'ZP_01618644.1'
p3418
sS'64312'
p3419
S'NP_775653.1'
p3420
sS'99930'
p3421
S'NP_624321.1'
p3422
sS'55511'
p3423
S'YP_239564.1'
p3424
sS'55510'
p3425
S'YP_238729.1'
p3426
sS'354116'
p3427
S'YP_492580.1'
p3428
sS'155537'
p3429
S'NP_116851.1'
p3430
sS'32049'
p3431
S'NP_863648.1'
p3432
sS'353153'
p3433
S'XP_822144.1'
p3434
sS'159185'
p3435
S'YP_097205.1'
p3436
sS'195056'
p3437
S'NC_003380.1'
p3438
sS'436066'
p3439
S'YP_001165306.1'
p3440
sS'292503'
p3441
S'YP_089684.1'
p3442
sS'12042'
p3443
S'NP_840100.1'
p3444
sS'12040'
p3445
S'NP_840067.1'
p3446
sS'12041'
p3447
S'NP_563613.1'
p3448
sS'12045'
p3449
S'NP_056751.2'
p3450
sS'377431'
p3451
S'ZP_01387166.1'
p3452
sS'12049'
p3453
S'NP_150434.2'
p3454
sS'117575'
p3455
S'NP_597909.1'
p3456
sS'53988'
p3457
S'YP_239422.1'
p3458
sS'375450'
p3459
S'NZ_AAUB01000400.1'
p3460
sS'185750'
p3461
S'NP_570977.1'
p3462
sS'104580'
p3463
S'NP_694474.1'
p3464
sS'104581'
p3465
S'YP_052951.1'
p3466
sS'11795'
p3467
S'NP_040334.1'
p3468
sS'10826'
p3469
S'NP_954553.1'
p3470
sS'10827'
p3471
S'NP_047242.1'
p3472
sS'10825'
p3473
S'NP_569147.1'
p3474
sS'215378'
p3475
S'YP_001054892.1'
p3476
sS'292459'
p3477
S'YP_077166.1'
p3478
sS'10820'
p3479
S'NP_899201.1'
p3480
sS'10821'
p3481
S'NP_039920.1'
p3482
sS'68509'
p3483
S'NP_443228.1'
p3484
sS'181667'
p3485
S'NP_848025.1'
p3486
sS'10829'
p3487
S'NP_047248.1'
p3488
sS'393130'
p3489
S'ZP_01937005.1'
p3490
sS'210007'
p3491
S'NP_722447.1'
p3492
sS'69014'
p3493
S'YP_184718.1'
p3494
sS'215158'
p3495
S'YP_850992.1'
p3496
sS'401703'
p3497
S'YP_001023801.1'
p3498
sS'42680'
p3499
S'NP_620681.1'
p3500
sS'47735'
p3501
S'YP_512243.1'
p3502
sS'376852'
p3503
S'YP_001293344.1'
p3504
sS'3659'
p3505
S'YP_247663.1'
p3506
sS'4577'
p3507
S'NP_043113.1'
p3508
sS'185639'
p3509
S'YP_227603.1'
p3510
sS'321955'
p3511
S'ZP_00381562.1'
p3512
sS'41952'
p3513
S'NP_043868.1'
p3514
sS'2527'
p3515
S'NP_043526.1'
p3516
sS'11663'
p3517
S'YP_536867.1'
p3518
sS'330395'
p3519
S'YP_406550.1'
p3520
sS'42377'
p3521
S'NP_008698.1'
p3522
sS'11660'
p3523
S'NP_040943.1'
p3524
sS'94290'
p3525
S'NP_758446.1'
p3526
sS'128390'
p3527
S'YP_637009.1'
p3528
sS'357244'
p3529
S'YP_001249269.1'
p3530
sS'328566'
p3531
S'YP_001023660.1'
p3532
sS'43179'
p3533
S'NT_166777.1'
p3534
sS'70601'
p3535
S'NP_877948.1'
p3536
sS'4889'
p3537
S'YP_203344.1'
p3538
sS'246343'
p3539
S'NP_987088.1'
p3540
sS'5061'
p3541
S'YP_337891.1'
p3542
sS'134681'
p3543
S'NP_148990.1'
p3544
sS'62928'
p3545
S'YP_935494.1'
p3546
sS'5062'
p3547
S'NC_008282.1'
p3548
sS'9371'
p3549
S'NT_166778.1'
p3550
sS'9375'
p3551
S'NP_037661.1'
p3552
sS'5068'
p3553
S'YP_398782.1'
p3554
sS'103782'
p3555
S'NP_740720.1'
p3556
sS'7962'
p3557
S'NP_007094.1'
p3558
sS'265669'
p3559
S'YP_015434.1'
p3560
sS'38804'
p3561
S'NP_938402.1'
p3562
sS'314269'
p3563
S'ZP_01229172.1'
p3564
sS'94122'
p3565
S'YP_871762.1'
p3566
sS'298975'
p3567
S'NC_006451.1'
p3568
sS'10680'
p3569
S'NP_597796.1'
p3570
sS'319225'
p3571
S'YP_376018.1'
p3572
sS'81927'
p3573
S'NP_008750.1'
p3574
sS'377610'
p3575
S'YP_729215.1'
p3576
sS'377611'
p3577
S'YP_184756.1'
p3578
sS'458234'
p3579
S'YP_001429513.1'
p3580
sS'203842'
p3581
S'YP_918952.1'
p3582
sS'1829'
p3583
S'YP_001019186.1'
p3584
sS'339965'
p3585
S'YP_453680.1'
p3586
sS'297798'
p3587
S'YP_001293735.1'
p3588
sS'4403'
p3589
S'YP_740628.1'
p3590
sS'10759'
p3591
S'NP_523350.1'
p3592
sS'12268'
p3593
S'NP_619711.1'
p3594
sS'338128'
p3595
S'YP_512677.1'
p3596
sS'104760'
p3597
S'YP_654405.1'
p3598
sS'298974'
p3599
S'NC_006458.1'
p3600
sS'235266'
p3601
S'YP_003765.1'
p3602
sS'83191'
p3603
S'NP_048338.1'
p3604
sS'12262'
p3605
S'NP_734030.1'
p3606
sS'920'
p3607
S'NP_863601.1'
p3608
sS'10752'
p3609
S'YP_950550.1'
p3610
sS'12261'
p3611
S'NP_734065.1'
p3612
sS'10754'
p3613
S'YP_063736.1'
p3614
sS'12267'
p3615
S'NP_620546.1'
p3616
sS'12264'
p3617
S'NP_734057.1'
p3618
sS'10530'
p3619
S'AP_000365.1'
p3620
sS'11809'
p3621
S'NP_955529.1'
p3622
sS'10533'
p3623
S'AP_000533.1'
p3624
sS'349101'
p3625
S'YP_001045917.1'
p3626
sS'55097'
p3627
S'YP_516229.1'
p3628
sS'10537'
p3629
S'NP_044212.1'
p3630
sS'11801'
p3631
S'YP_656508.1'
p3632
sS'364103'
p3633
S'YP_534896.1'
p3634
sS'338963'
p3635
S'YP_842349.1'
p3636
sS'9719'
p3637
S'YP_778915.1'
p3638
sS'9718'
p3639
S'YP_778928.1'
p3640
sS'454128'
p3641
S'YP_001425570.1'
p3642
sS'175567'
p3643
S'AP_000336.1'
p3644
sS'216614'
p3645
S'YP_595732.1'
p3646
sS'170196'
p3647
S'NP_795793.1'
p3648
sS'9713'
p3649
S'YP_778811.1'
p3650
sS'134599'
p3651
S'NP_066377.1'
p3652
sS'9711'
p3653
S'NP_007081.1'
p3654
sS'96856'
p3655
S'YP_778655.1'
p3656
sS'437329'
p3657
S'YP_001210295.1'
p3658
sS'154811'
p3659
S'NP_943746.1'
p3660
sS'9715'
p3661
S'YP_778785.1'
p3662
sS'195054'
p3663
S'NP_740737.1'
p3664
sS'37349'
p3665
S'YP_398766.1'
p3666
sS'71366'
p3667
S'NP_058501.1'
p3668
sS'831'
p3669
S'NP_042280.1'
p3670
sS'440266'
p3671
S'YP_001285489.1'
p3672
sS'839'
p3673
S'NP_053773.1'
p3674
sS'198538'
p3675
S'NP_795428.1'
p3676
sS'198539'
p3677
S'NP_795488.1'
p3678
sS'37347'
p3679
S'NT_166759.1'
p3680
sS'12317'
p3681
S'NP_620774.1'
p3682
sS'12315'
p3683
S'NP_620826.1'
p3684
sS'12313'
p3685
S'YP_133829.1'
p3686
sS'11938'
p3687
S'NP_044739.1'
p3688
sS'89463'
p3689
S'NP_049374.1'
p3690
sS'320390'
p3691
S'ZP_00442785.1'
p3692
sS'188937'
p3693
S'NP_619514.1'
p3694
sS'12319'
p3695
S'NP_604485.1'
p3696
sS'44562'
p3697
S'NP_051034.1'
p3698
sS'260967'
p3699
S'YP_001218754.1'
p3700
sS'44560'
p3701
S'NP_803544.1'
p3702
sS'44561'
p3703
S'NP_043519.1'
p3704
sS'321967'
p3705
S'YP_808059.1'
p3706
sS'264730'
p3707
S'YP_325661.1'
p3708
sS'325569'
p3709
S'XP_001598987.1'
p3710
sS'271108'
p3711
S'NP_047556.1'
p3712
sS'27589'
p3713
S'NP_008068.1'
p3714
sS'371725'
p3715
S'YP_001054775.1'
p3716
sS'10228'
p3717
S'YP_654098.1'
p3718
sS'70783'
p3719
S'NP_612828.1'
p3720
sS'10224'
p3721
S'YP_337797.1'
p3722
sS'367928'
p3723
S'YP_910494.1'
p3724
sS'5480'
p3725
S'NP_943649.1'
p3726
sS'95656'
p3727
S'NZ_ABES01000012.1'
p3728
sS'284503'
p3729
S'NC_006630.1'
p3730
sS'82268'
p3731
S'NP_150112.1'
p3732
sS'143895'
p3733
S'NP_937920.1'
p3734
sS'783'
p3735
S'ZP_00349487.1'
p3736
sS'353154'
p3737
S'XP_955552.1'
p3738
sS'1724'
p3739
S'NP_857609.1'
p3740
sS'353151'
p3741
S'XP_668697.1'
p3742
sS'167927'
p3743
S'NP_624317.1'
p3744
sS'95658'
p3745
S'NZ_AAYO01000017.1'
p3746
sS'1721'
p3747
S'NP_203539.1'
p3748
sS'388038'
p3749
S'YP_908763.1'
p3750
sS'172391'
p3751
S'NP_620015.1'
p3752
sS'84350'
p3753
S'YP_337875.1'
p3754
sS'40137'
p3755
S'YP_015694.1'
p3756
sS'84600'
p3757
S'YP_178028.1'
p3758
sS'10541'
p3759
S'AP_000474.1'
p3760
sS'83554'
p3761
S'NP_052331.1'
p3762
sS'137039'
p3763
S'YP_913574.1'
p3764
sS'62698'
p3765
S'NP_660141.1'
p3766
sS'37727'
p3767
S'NP_943733.1'
p3768
sS'78191'
p3769
S'YP_001123264.1'
p3770
sS'273521'
p3771
S'YP_089670.1'
p3772
sS'273520'
p3773
S'YP_086905.1'
p3774
sS'172864'
p3775
S'AP_000399.1'
p3776
sS'393480'
p3777
S'YP_001259990.1'
p3778
sS'233783'
p3779
S'YP_232819.1'
p3780
sS'328615'
p3781
S'YP_803387.1'
p3782
sS'68876'
p3783
S'YP_308663.1'
p3784
sS'53182'
p3785
S'NP_056917.1'
p3786
sS'12407'
p3787
S'NP_958097.1'
p3788
sS'48717'
p3789
S'NP_112433.1'
p3790
sS'7932'
p3791
S'NP_991079.1'
p3792
sS'59511'
p3793
S'YP_025719.1'
p3794
sS'7792'
p3795
S'NP_395465.1'
p3796
sS'7797'
p3797
S'NP_008535.1'
p3798
sS'31711'
p3799
S'NP_041887.1'
p3800
sS'58777'
p3801
S'YP_054530.1'
p3802
sS'31713'
p3803
S'NP_733943.1'
p3804
sS'7159'
p3805
S'NZ_AAGE02036206.1'
p3806
sS'1582'
p3807
S'YP_077168.1'
p3808
sS'1580'
p3809
S'YP_031728.1'
p3810
sS'94919'
p3811
S'NP_739632.1'
p3812
sS'122203'
p3813
S'NP_899661.1'
p3814
sS'1587'
p3815
S'NP_052201.1'
p3816
sS'1584'
p3817
S'NP_043133.1'
p3818
sS'1585'
p3819
S'NP_039667.1'
p3820
sS'278164'
p3821
S'YP_001293644.1'
p3822
sS'440085'
p3823
S'ZP_02060063.1'
p3824
sS'221915'
p3825
S'YP_024546.1'
p3826
sS'306901'
p3827
S'XP_001230270.1'
p3828
sS'216432'
p3829
S'ZP_00951669.1'
p3830
sS'212717'
p3831
S'NP_783832.1'
p3832
sS'29397'
p3833
S'NP_862218.1'
p3834
sS'164648'
p3835
S'YP_659498.1'
p3836
sS'338108'
p3837
S'YP_512459.1'
p3838
sS'630'
p3839
S'NP_976306.1'
p3840
sS'632'
p3841
S'YP_094026.1'
p3842
sS'57547'
p3843
S'YP_097114.1'
p3844
sS'47669'
p3845
S'NP_043911.1'
p3846
sS'207697'
p3847
S'NP_694934.1'
p3848
sS'31532'
p3849
S'NP_597857.1'
p3850
sS'31535'
p3851
S'YP_138545.1'
p3852
sS'212734'
p3853
S'NP_862819.1'
p3854
sS'31537'
p3855
S'NP_043565.1'
p3856
sS'30397'
p3857
S'NP_387497.1'
p3858
sS'40666'
p3859
S'NP_734328.1'
p3860
sS'284593'
p3861
S'XP_449958.1'
p3862
sS'6526'
p3863
S'NP_976177.1'
p3864
sS'234601'
p3865
S'YP_052971.2'
p3866
sS'242861'
p3867
S'YP_544112.1'
p3868
sS'8267'
p3869
S'YP_001403141.1'
p3870
sS'72197'
p3871
S'NP_694868.1'
p3872
sS'192871'
p3873
S'YP_001054866.1'
p3874
sS'316155'
p3875
S'YP_656480.1'
p3876
sS'11069'
p3877
S'NP_040961.1'
p3878
sS'59196'
p3879
S'ZP_01301481.1'
p3880
sS'417288'
p3881
S'YP_001004151.1'
p3882
sS'77811'
p3883
S'YP_717932.1'
p3884
sS'77813'
p3885
S'YP_579172.1'
p3886
sS'306276'
p3887
S'YP_443934.1'
p3888
sS'11060'
p3889
S'NP_739593.1'
p3890
sS'28265'
p3891
S'NP_919421.1'
p3892
sS'143894'
p3893
S'NP_443319.1'
p3894
sS'417280'
p3895
S'YP_001039811.1'
p3896
sS'105295'
p3897
S'NP_976138.1'
p3898
sS'108098'
p3899
S'NP_852722.1'
p3900
sS'136143'
p3901
S'NP_065290.1'
p3902
sS'284590'
p3903
S'XP_456330.1'
p3904
sS'221270'
p3905
S'NP_976164.1'
p3906
sS'218923'
p3907
S'NP_942001.1'
p3908
sS'390443'
p3909
S'YP_001285753.1'
p3910
sS'38123'
p3911
S'YP_073296.1'
p3912
sS'66200'
p3913
S'YP_077190.1'
p3914
sS'284239'
p3915
S'YP_054569.1'
p3916
sS'394221'
p3917
S'YP_758297.1'
p3918
sS'28285'
p3919
S'AP_000232.1'
p3920
sS'4081'
p3921
S'YP_514917.1'
p3922
sS'111598'
p3923
S'YP_717013.1'
p3924
sS'242710'
p3925
S'YP_068090.1'
p3926
sS'28282'
p3927
S'AP_000141.1'
p3928
sS'390235'
p3929
S'ZP_01642104.1'
p3930
sS'170621'
p3931
S'NP_277061.1'
p3932
sS'28289'
p3933
S'NP_148927.1'
p3934
sS'28288'
p3935
S'YP_473336.1'
p3936
sS'242718'
p3937
S'YP_654353.1'
p3938
sS'49964'
p3939
S'NP_203499.1'
p3940
sS'381754'
p3941
S'YP_001351682.1'
p3942
sS'8409'
p3943
S'NP_116779.1'
p3944
sS'284591'
p3945
S'XP_506123.1'
p3946
sS'154834'
p3947
S'NP_620828.1'
p3948
sS'410289'
p3949
S'YP_980059.1'
p3950
sS'95659'
p3951
S'NZ_AAZR01000018.1'
p3952
sS'356862'
p3953
S'YP_460047.1'
p3954
sS'9818'
p3955
S'NP_008587.1'
p3956
sS'151536'
p3957
S'NP_076695.1'
p3958
sS'151535'
p3959
S'NP_076634.1'
p3960
sS'151534'
p3961
S'NP_597941.1'
p3962
sS'5722'
p3963
S'NZ_AAHC01075128.1'
p3964
sS'12465'
p3965
S'NP_734308.1'
p3966
sS'12466'
p3967
S'NP_734442.1'
p3968
sS'151538'
p3969
S'NP_597940.1'
p3970
sS'314256'
p3971
S'ZP_01158503.1'
p3972
sS'12461'
p3973
S'NP_056788.1'
p3974
sS'180586'
p3975
S'NP_694840.1'
p3976
sS'9813'
p3977
S'NT_166781.1'
p3978
sS'61318'
p3979
S'YP_636173.1'
p3980
sS'338969'
p3981
S'YP_525463.1'
p3982
sS'324925'
p3983
S'ZP_00590867.1'
p3984
sS'282786'
p3985
S'YP_529549.1'
p3986
sS'61312'
p3987
S'NP_049460.1'
p3988
sS'61316'
p3989
S'YP_913704.1'
p3990
sS'294934'
p3991
S'ZP_00366698.1'
p3992
sS'340101'
p3993
S'ZP_01925777.1'
p3994
sS'223344'
p3995
S'NP_803250.1'
p3996
sS'223345'
p3997
S'NP_803244.1'
p3998
sS'223346'
p3999
S'NP_808833.1'
p4000
sS'223347'
p4001
S'NP_803227.1'
p4002
sS'189518'
p4003
S'NP_714911.1'
p4004
sS'103812'
p4005
S'YP_163893.1'
p4006
sS'223342'
p4007
S'YP_619884.1'
p4008
sS'52970'
p4009
S'YP_001293618.1'
p4010
sS'456442'
p4011
S'YP_001405617.1'
p4012
sS'355276'
p4013
S'YP_799517.1'
p4014
sS'72539'
p4015
S'NP_619757.1'
p4016
sS'6736'
p4017
S'NP_694532.1'
p4018
sS'217708'
p4019
S'NP_871760.1'
p4020
sS'411875'
p4021
S'YP_001127603.1'
p4022
sS'52979'
p4023
S'NP_695189.1'
p4024
sS'225979'
p4025
S'NP_835581.1'
p4026
sS'225588'
p4027
S'NP_813746.1'
p4028
sS'4031'
p4029
S'YP_784177.1'
p4030
sS'196627'
p4031
S'YP_227351.1'
p4032
sS'5833'
p4033
S'NP_059668.1'
p4034
sS'51680'
p4035
S'NP_115483.1'
p4036
sS'292208'
p4037
S'YP_164341.1'
p4038
sS'263870'
p4039
S'YP_913769.1'
p4040
sS'11250'
p4041
S'NP_056866.1'
p4042
sS'195615'
p4043
S'YP_001403154.1'
p4044
sS'35250'
p4045
S'YP_001294939.1'
p4046
sS'160491'
p4047
S'YP_001129349.1'
p4048
sS'35252'
p4049
S'NP_597933.1'
p4050
sS'188763'
p4051
S'NP_612807.1'
p4052
sS'35254'
p4053
S'NP_891976.1'
p4054
sS'206160'
p4055
S'YP_089671.1'
p4056
sS'338421'
p4057
S'YP_358872.1'
p4058
sS'35258'
p4059
S'NP_056819.1'
p4060
sS'39053'
p4061
S'YP_001293631.1'
p4062
sS'262724'
p4063
S'YP_006211.1'
p4064
sS'9925'
p4065
S'NP_877415.1'
p4066
sS'127509'
p4067
S'YP_031685.1'
p4068
sS'127508'
p4069
S'NP_059548.1'
p4070
sS'292029'
p4071
S'YP_241105.1'
p4072
sS'341663'
p4073
S'XP_001218754.1'
p4074
sS'233894'
p4075
S'YP_656473.1'
p4076
sS'210'
p4077
S'YP_025618.1'
p4078
sS'11096'
p4079
S'NP_777506.1'
p4080
sS'35341'
p4081
S'NP_620300.1'
p4082
sS'4039'
p4083
S'YP_740180.1'
p4084
sS'262698'
p4085
S'YP_223869.1'
p4086
sS'167132'
p4087
S'NP_702992.1'
p4088
sS'11788'
p4089
S'NP_955595.1'
p4090
sS'335103'
p4091
S'YP_392500.1'
p4092
sS'350054'
p4093
S'YP_001136863.1'
p4094
sS'357804'
p4095
S'YP_945015.1'
p4096
sS'6645'
p4097
S'YP_112445.1'
p4098
sS'296598'
p4099
S'YP_271844.1'
p4100
sS'350058'
p4101
S'YP_956836.1'
p4102
sS'314315'
p4103
S'YP_396497.1'
p4104
sS'107804'
p4105
S'NP_659546.1'
p4106
sS'107806'
p4107
S'NP_240406.1'
p4108
sS'5901'
p4109
S'YP_740760.1'
p4110
sS'10817'
p4111
S'NP_077103.1'
p4112
sS'5907'
p4113
S'YP_740848.1'
p4114
sS'10815'
p4115
S'NP_951036.1'
p4116
sS'5905'
p4117
S'YP_740804.1'
p4118
sS'292443'
p4119
S'YP_087081.1'
p4120
sS'5908'
p4121
S'NP_049611.1'
p4122
sS'43763'
p4123
S'YP_611157.1'
p4124
sS'247080'
p4125
S'NP_932305.2'
p4126
sS'257309'
p4127
S'NP_940681.1'
p4128
sS'181476'
p4129
S'YP_636983.1'
p4130
sS'270374'
p4131
S'ZP_01740150.1'
p4132
sS'57123'
p4133
S'YP_001256925.1'
p4134
sS'39946'
p4135
S'YP_654261.1'
p4136
sS'39947'
p4137
S'NP_044338.1'
p4138
sS'4563'
p4139
S'YP_762511.1'
p4140
sS'447213'
p4141
S'NZ_ABDS01000064.1'
p4142
sS'196162'
p4143
S'YP_925882.1'
p4144
sS'261503'
p4145
S'YP_086853.1'
p4146
sS'411901'
p4147
S'ZP_01962287.1'
p4148
sS'4565'
p4149
S'YP_398429.1'
p4150
sS'411902'
p4151
S'NZ_ABCC01000111.1'
p4152
sS'192222'
p4153
S'YP_001165442.1'
p4154
sS'36352'
p4155
S'YP_401728.1'
p4156
sS'15945'
p4157
S'YP_740454.1'
p4158
sS'312008'
p4159
S'YP_224294.1'
p4160
sS'195264'
p4161
S'YP_537089.1'
p4162
sS'6398'
p4163
S'NP_008250.1'
p4164
sS'11673'
p4165
S'NP_597786.1'
p4166
sS'11676'
p4167
S'NP_789740.1'
p4168
sS'172667'
p4169
S'YP_227604.1'
p4170
sS'203907'
p4171
S'NP_878898.1'
p4172
sS'373413'
p4173
S'YP_655379.1'
p4174
sS'104688'
p4175
S'NP_957754.1'
p4176
sS'405535'
p4177
S'NZ_AAUE01000091.1'
p4178
sS'405534'
p4179
S'NZ_AAUF01000363.1'
p4180
sS'173242'
p4181
S'YP_961355.1'
p4182
sS'405536'
p4183
S'NZ_ABDN01000124.1'
p4184
sS'405531'
p4185
S'NZ_ABDJ01000077.1'
p4186
sS'386609'
p4187
S'YP_626492.1'
p4188
sS'294365'
p4189
S'YP_001040003.1'
p4190
sS'297010'
p4191
S'NP_114053.1'
p4192
sS'12783'
p4193
S'NC_001830.1'
p4194
sS'340186'
p4195
S'ZP_00724034.1'
p4196
sS'340187'
p4197
S'NP_620558.1'
p4198
sS'43107'
p4199
S'YP_214822.1'
p4200
sS'340185'
p4201
S'ZP_00731636.1'
p4202
sS'10320'
p4203
S'NP_045375.1'
p4204
sS'4899'
p4205
S'NP_700373.1'
p4206
sS'10325'
p4207
S'NP_851933.1'
p4208
sS'62061'
p4209
S'NP_976203.1'
p4210
sS'10326'
p4211
S'YP_053124.1'
p4212
sS'320122'
p4213
S'YP_529630.1'
p4214
sS'2771'
p4215
S'NP_045215.1'
p4216
sS'445986'
p4217
S'NZ_ABCU01000035.1'
p4218
sS'4897'
p4219
S'NP_705628.1'
p4220
sS'2775'
p4221
S'NP_052239.1'
p4222
sS'187977'
p4223
S'NP_818993.1'
p4224
sS'93838'
p4225
S'YP_529487.1'
p4226
sS'232721'
p4227
S'YP_988339.1'
p4228
sS'155920'
p4229
S'ZP_00684453.1'
p4230
sS'81930'
p4231
S'NP_008737.1'
p4232
sS'81931'
p4233
S'NP_733941.1'
p4234
sS'7971'
p4235
S'YP_913327.1'
p4236
sS'36754'
p4237
S'YP_232805.1'
p4238
sS'79967'
p4239
S'NP_758763.1'
p4240
sS'12253'
p4241
S'NP_078449.1'
p4242
sS'334856'
p4243
S'YP_257152.1'
p4244
sS'152794'
p4245
S'NP_702974.1'
p4246
sS'290028'
p4247
S'YP_460024.1'
p4248
sS'9354'
p4249
S'YP_220679.1'
p4250
sS'111067'
p4251
S'NP_150627.1'
p4252
sS'1856'
p4253
S'NP_085468.1'
p4254
sS'6269'
p4255
S'YP_537101.1'
p4256
sS'2176'
p4257
S'NP_976270.1'
p4258
sS'235279'
p4259
S'NP_861406.1'
p4260
sS'12092'
p4261
S'NP_740559.1'
p4262
sS'9546'
p4263
S'NP_114346.1'
p4264
sS'9544'
p4265
S'YP_026116.1'
p4266
sS'54026'
p4267
S'YP_254622.1'
p4268
sS'1421'
p4269
S'NP_943085.1'
p4270
sS'9725'
p4271
S'NP_944723.1'
p4272
sS'155148'
p4273
S'NP_112091.1'
p4274
sS'9720'
p4275
S'NP_006940.1'
p4276
sS'246280'
p4277
S'YP_460037.1'
p4278
sS'2608'
p4279
S'NP_040462.1'
p4280
sS'27457'
p4281
S'YP_961394.1'
p4282
sS'39720'
p4283
S'NP_045941.1'
p4284
sS'70203'
p4285
S'NP_695204.1'
p4286
sS'1935'
p4287
S'NP_862204.1'
p4288
sS'10784'
p4289
S'NP_041406.1'
p4290
sS'10788'
p4291
S'NP_955539.1'
p4292
sS'439851'
p4293
S'NZ_ABAP01000142.1'
p4294
sS'443152'
p4295
S'ZP_01896185.1'
p4296
sS'48483'
p4297
S'NP_044811.1'
p4298
sS'163325'
p4299
S'YP_717926.1'
p4300
sS'36137'
p4301
S'YP_026026.1'
p4302
sS'347515'
p4303
S'YP_308654.1'
p4304
sS'8895'
p4305
S'YP_829501.1'
p4306
sS'7091'
p4307
S'NP_059480.1'
p4308
sS'99287'
p4309
S'NP_951055.1'
p4310
sS'120839'
p4311
S'NP_739801.1'
p4312
sS'53336'
p4313
S'NP_049388.1'
p4314
sS'12321'
p4315
S'YP_053235.1'
p4316
sS'45351'
p4317
S'XP_001647548.1'
p4318
sS'12327'
p4319
S'NP_604489.1'
p4320
sS'35339'
p4321
S'NP_821155.1'
p4322
sS'187764'
p4323
S'YP_654150.1'
p4324
sS'156578'
p4325
S'ZP_01614982.1'
p4326
sS'426587'
p4327
S'YP_001434578.1'
p4328
sS'80866'
p4329
S'NP_904318.1'
p4330
sS'439014'
p4331
S'YP_001429580.1'
p4332
sS'54315'
p4333
S'NP_777493.1'
p4334
sS'361072'
p4335
S'YP_492652.1'
p4336
sS'40059'
p4337
S'YP_052940.1'
p4338
sS'146891'
p4339
S'YP_001010315.1'
p4340
sS'71421'
p4341
S'NP_851935.1'
p4342
sS'419612'
p4343
S'YP_001315084.2'
p4344
sS'246200'
p4345
S'YP_169083.1'
p4346
sS'179237'
p4347
S'NP_542343.1'
p4348
sS'40050'
p4349
S'YP_052966.1'
p4350
sS'40051'
p4351
S'YP_052970.1'
p4352
sS'9032'
p4353
S'YP_272110.1'
p4354
sS'10258'
p4355
S'NP_957910.1'
p4356
sS'70794'
p4357
S'NP_059946.1'
p4358
sS'9031'
p4359
S'XR_027245.1'
p4360
sS'367061'
p4361
S'YP_459931.1'
p4362
sS'70793'
p4363
S'NP_853540.1'
p4364
sS'9034'
p4365
S'YP_272097.1'
p4366
sS'161544'
p4367
S'ZP_01862485.1'
p4368
sS'392505'
p4369
S'YP_803393.1'
p4370
sS'10255'
p4371
S'NP_042241.1'
p4372
sS'95663'
p4373
S'NZ_AAYQ01000082.1'
p4374
sS'95662'
p4375
S'NZ_AAYN01000070.1'
p4376
sS'95661'
p4377
S'NZ_AAYP01000020.1'
p4378
sS'95660'
p4379
S'NZ_AAZQ01000005.1'
p4380
sS'95667'
p4381
S'NZ_ABEV01000005.1'
p4382
sS'95666'
p4383
S'NZ_AAZT01000005.1'
p4384
sS'95665'
p4385
S'NZ_AAZS01000009.1'
p4386
sS'95664'
p4387
S'NZ_ABET01000006.1'
p4388
sS'29255'
p4389
S'NP_620070.1'
p4390
sS'63415'
p4391
S'NP_937946.1'
p4392
sS'195062'
p4393
S'NP_620833.1'
p4394
sS'29256'
p4395
S'NP_620730.2'
p4396
sS'29250'
p4397
S'NP_690573.1'
p4398
sS'29252'
p4399
S'NP_052294.1'
p4400
sS'84346'
p4401
S'YP_026052.1'
p4402
sS'37083'
p4403
S'NP_777301.1'
p4404
sS'7238'
p4405
S'NP_982321.1'
p4406
sS'233150'
p4407
S'NP_853508.1'
p4408
sS'264201'
p4409
S'YP_009030.1'
p4410
sS'255365'
p4411
S'YP_220744.1'
p4412
sS'264203'
p4413
S'YP_163733.1'
p4414
sS'33708'
p4415
S'NP_597855.1'
p4416
sS'11819'
p4417
S'NP_579907.1'
p4418
sS'71223'
p4419
S'NP_647574.1'
p4420
sS'243276'
p4421
S'NP_219478.1'
p4422
sS'148879'
p4423
S'NP_112033.1'
p4424
sS'243274'
p4425
S'NP_229674.1'
p4426
sS'40279'
p4427
S'NP_068347.1'
p4428
sS'243273'
p4429
S'ZP_00405531.1'
p4430
sS'438482'
p4431
S'YP_001285470.1'
p4432
sS'72053'
p4433
S'YP_214913.1'
p4434
sS'348296'
p4435
S'YP_443923.1'
p4436
sS'40270'
p4437
S'NP_043928.1'
p4438
sS'356379'
p4439
S'YP_635821.1'
p4440
sS'115425'
p4441
S'NP_075460.1'
p4442
sS'272844'
p4443
S'YP_308888.1'
p4444
sS'115427'
p4445
S'YP_133770.1'
p4446
sS'392174'
p4447
S'YP_667848.1'
p4448
sS'169688'
p4449
S'NP_877489.1'
p4450
sS'387092'
p4451
S'YP_001357318.1'
p4452
sS'1590'
p4453
S'YP_138221.1'
p4454
sS'3077'
p4455
S'NP_045934.1'
p4456
sS'33964'
p4457
S'YP_195277.1'
p4458
sS'169683'
p4459
S'NP_803872.1'
p4460
sS'33967'
p4461
S'YP_067937.1'
p4462
sS'1599'
p4463
S'NP_862281.1'
p4464
sS'1598'
p4465
S'NP_776207.1'
p4466
sS'59504'
p4467
S'NP_127504.1'
p4468
sS'153946'
p4469
S'YP_214874.1'
p4470
sS'114921'
p4471
S'NP_954628.1'
p4472
sS'390897'
p4473
S'YP_665498.1'
p4474
sS'244590'
p4475
S'NP_944486.1'
p4476
sS'45972'
p4477
S'YP_251915.1'
p4478
sS'47874'
p4479
S'YP_220455.1'
p4480
sS'440250'
p4481
S'YP_001285806.1'
p4482
sS'174155'
p4483
S'NP_542494.1'
p4484
sS'7160'
p4485
S'YP_194923.1'
p4486
sS'220812'
p4487
S'NP_877492.1'
p4488
sS'220814'
p4489
S'NC_005875.1'
p4490
sS'48498'
p4491
S'YP_271962.1'
p4492
sS'7165'
p4493
S'NP_008081.1'
p4494
sS'33562'
p4495
S'YP_003686.1'
p4496
sS'264447'
p4497
S'YP_913379.1'
p4498
sS'37665'
p4499
S'NP_597950.1'
p4500
sS'112023'
p4501
S'NP_597910.1'
p4502
sS'318593'
p4503
S'YP_337950.1'
p4504
sS'238030'
p4505
S'ZP_00348376.1'
p4506
sS'218667'
p4507
S'NP_783209.1'
p4508
sS'260908'
p4509
S'YP_006455.1'
p4510
sS'66692'
p4511
S'YP_177612.1'
p4512
sS'12899'
p4513
S'NC_003882.1'
p4514
sS'12898'
p4515
S'NC_003539.1'
p4516
sS'602'
p4517
S'YP_194910.1'
p4518
sS'12895'
p4519
S'NC_001340.1'
p4520
sS'12894'
p4521
S'NC_003636.1'
p4522
sS'12897'
p4523
S'NC_002015.1'
p4524
sS'12896'
p4525
S'NC_001410.1'
p4526
sS'12890'
p4527
S'NC_001464.1'
p4528
sS'12893'
p4529
S'NC_001351.1'
p4530
sS'12892'
p4531
S'NC_002030.1'
p4532
sS'382245'
p4533
S'YP_001144378.1'
p4534
sS'260479'
p4535
S'NC_007721.1'
p4536
sS'37862'
p4537
S'YP_817460.1'
p4538
sS'283166'
p4539
S'YP_034360.1'
p4540
sS'8276'
p4541
S'NP_203726.1'
p4542
sS'283165'
p4543
S'YP_032872.1'
p4544
sS'283163'
p4545
S'YP_164831.1'
p4546
sS'175950'
p4547
S'NP_700429.1'
p4548
sS'6334'
p4549
S'NP_077267.1'
p4550
sS'111290'
p4551
S'YP_514709.1'
p4552
sS'11079'
p4553
S'NP_733817.1'
p4554
sS'385555'
p4555
S'YP_784033.1'
p4556
sS'390973'
p4557
S'YP_842437.1'
p4558
sS'11072'
p4559
S'NP_775674.1'
p4560
sS'306264'
p4561
S'ZP_00372198.1'
p4562
sS'11070'
p4563
S'NP_740325.1'
p4564
sS'349521'
p4565
S'YP_438126.1'
p4566
sS'39443'
p4567
S'NP_612584.1'
p4568
sS'30724'
p4569
S'YP_001293683.1'
p4570
sS'207597'
p4571
S'NP_758950.1'
p4572
sS'159310'
p4573
S'NP_115388.1'
p4574
sS'29073'
p4575
S'NP_597993.1'
p4576
sS'288315'
p4577
S'YP_626620.1'
p4578
sS'6239'
p4579
S'NR_003490.1'
p4580
sS'463521'
p4581
S'NP_008789.1'
p4582
sS'28072'
p4583
S'YP_783838.1'
p4584
sS'47903'
p4585
S'NP_043934.1'
p4586
sS'31631'
p4587
S'NP_937955.1'
p4588
sS'338187'
p4589
S'YP_001449232.1'
p4590
sS'28295'
p4591
S'NP_839969.1'
p4592
sS'4097'
p4593
S'YP_173504.1'
p4594
sS'4096'
p4595
S'YP_358758.1'
p4596
sS'91975'
p4597
S'NP_073663.1'
p4598
sS'218845'
p4599
S'NP_871003.1'
p4600
sS'47660'
p4601
S'NP_862541.1'
p4602
sS'4098'
p4603
S'YP_398944.1'
p4604
sS'89471'
p4605
S'YP_717935.1'
p4606
sS'136195'
p4607
S'YP_863655.1'
p4608
sS'154808'
p4609
S'YP_514818.1'
p4610
sS'154809'
p4611
S'YP_913639.1'
p4612
sS'340177'
p4613
S'YP_380324.1'
p4614
sS'180590'
p4615
S'NP_631990.1'
p4616
sS'487'
p4617
S'NP_842572.1'
p4618
sS'486'
p4619
S'NC_006968.1'
p4620
sS'485'
p4621
S'NP_052173.1'
p4622
sS'342615'
p4623
S'ZP_00784418.1'
p4624
sS'105260'
p4625
S'YP_001144388.1'
p4626
sS'343509'
p4627
S'YP_456196.1'
p4628
sS'480'
p4629
S'NP_957542.1'
p4630
sS'27697'
p4631
S'YP_001293865.1'
p4632
sS'9809'
p4633
S'NP_007380.1'
p4634
sS'196375'
p4635
S'NP_758815.2'
p4636
sS'9807'
p4637
S'NP_007445.1'
p4638
sS'107324'
p4639
S'NP_569142.1'
p4640
sS'177439'
p4641
S'YP_066972.1'
p4642
sS'7580'
p4643
S'NP_033663.1'
p4644
sS'230158'
p4645
S'YP_227613.1'
p4646
sS'12417'
p4647
S'NP_050171.1'
p4648
sS'185955'
p4649
S'YP_720000.1'
p4650
sS'321614'
p4651
S'YP_001427408.1'
p4652
sS'7740'
p4653
S'NP_007548.1'
p4654
sS'7741'
p4655
S'NP_776285.1'
p4656
sS'405533'
p4657
S'NZ_ABDA01000254.1'
p4658
sS'31033'
p4659
S'NT_165338.1'
p4660
sS'31559'
p4661
S'NP_041736.1'
p4662
sS'393305'
p4663
S'YP_001008393.1'
p4664
sS'7748'
p4665
S'NP_033650.1'
p4666
sS'128710'
p4667
S'YP_529665.1'
p4668
sS'13616'
p4669
S'YP_087191.1'
p4670
sS'160734'
p4671
S'YP_783995.1'
p4672
sS'61452'
p4673
S'YP_784008.1'
p4674
sS'92395'
p4675
S'NP_620565.1'
p4676
sS'88656'
p4677
S'NP_739879.1'
p4678
sS'223284'
p4679
S'NP_671471.1'
p4680
sS'223352'
p4681
S'NP_808827.1'
p4682
sS'286009'
p4683
S'YP_448906.1'
p4684
sS'223356'
p4685
S'NP_620895.1'
p4686
sS'375432'
p4687
S'ZP_01798029.1'
p4688
sS'77048'
p4689
S'NP_597860.1'
p4690
sS'6723'
p4691
S'YP_022776.1'
p4692
sS'279383'
p4693
S'YP_224014.1'
p4694
sS'88388'
p4695
S'NP_660180.1'
p4696
sS'4787'
p4697
S'NP_037634.1'
p4698
sS'370553'
p4699
S'YP_601494.1'
p4700
sS'161378'
p4701
S'NP_620870.1'
p4702
sS'370551'
p4703
S'YP_597609.1'
p4704
sS'239365'
p4705
S'NP_862834.2'
p4706
sS'74660'
p4707
S'NP_932757.1'
p4708
sS'418143'
p4709
S'YP_956842.1'
p4710
sS'73494'
p4711
S'NC_003463.1'
p4712
sS'12524'
p4713
S'NP_694826.1'
p4714
sS'11269'
p4715
S'NP_042031.1'
p4716
sS'73497'
p4717
S'NP_047558.1'
p4718
sS'320834'
p4719
S'YP_239640.1'
p4720
sS'320835'
p4721
S'YP_239719.1'
p4722
sS'320836'
p4723
S'YP_239854.1'
p4724
sS'8090'
p4725
S'NP_739827.1'
p4726
sS'96477'
p4727
S'NP_689390.1'
p4728
sS'320839'
p4729
S'YP_240072.1'
p4730
sS'73498'
p4731
S'NP_047560.1'
p4732
sS'52888'
p4733
S'YP_133892.1'
p4734
sS'340907'
p4735
S'YP_443920.1'
p4736
sS'220813'
p4737
S'YP_015695.1'
p4738
sS'383857'
p4739
S'YP_665524.1'
p4740
sS'160488'
p4741
S'NP_747520.1'
p4742
sS'181460'
p4743
S'NP_740061.1'
p4744
sS'181461'
p4745
S'NP_740074.1'
p4746
sS'160484'
p4747
S'NP_620302.1'
p4748
sS'181464'
p4749
S'NP_740087.1'
p4750
sS'181466'
p4751
S'NP_740100.1'
p4752
sS'181467'
p4753
S'NP_740113.1'
p4754
sS'205919'
p4755
S'NZ_AAEQ01000064.1'
p4756
sS'75939'
p4757
S'NP_795754.1'
p4758
sS'234621'
p4759
S'YP_345733.1'
p4760
sS'269798'
p4761
S'YP_680419.1'
p4762
sS'393125'
p4763
S'NZ_AARR01000054.1'
p4764
sS'304399'
p4765
S'YP_227547.1'
p4766
sS'279539'
p4767
S'YP_044807.1'
p4768
sS'11142'
p4769
S'NP_740620.1'
p4770
sS'12064'
p4771
S'NP_740455.1'
p4772
sS'130760'
p4773
S'YP_581750.1'
p4774
sS'404215'
p4775
S'NZ_AAYU01000069.1'
p4776
sS'166256'
p4777
S'NP_739996.1'
p4778
sS'223282'
p4779
S'NP_671464.1'
p4780
sS'12663'
p4781
S'YP_239438.1'
p4782
sS'223287'
p4783
S'NP_803153.1'
p4784
sS'347834'
p4785
S'YP_512810.1'
p4786
sS'32624'
p4787
S'NP_945145.1'
p4788
sS'5849'
p4789
S'YP_717203.1'
p4790
sS'10804'
p4791
S'YP_680428.1'
p4792
sS'32629'
p4793
S'NP_835282.1'
p4794
sS'5911'
p4795
S'NP_149408.1'
p4796
sS'161675'
p4797
S'NP_776035.1'
p4798
sS'43770'
p4799
S'NP_862262.1'
p4800
sS'57119'
p4801
S'NP_612222.1'
p4802
sS'63632'
p4803
S'YP_874798.1'
p4804
sS'411154'
p4805
S'YP_956881.1'
p4806
sS'187850'
p4807
S'NP_579867.1'
p4808
sS'195'
p4809
S'YP_618231.1'
p4810
sS'197'
p4811
S'YP_783826.1'
p4812
sS'405532'
p4813
S'NZ_ABDI01000089.1'
p4814
sS'314288'
p4815
S'ZP_01262957.1'
p4816
sS'404692'
p4817
S'NZ_AATX01000527.1'
p4818
sS'4558'
p4819
S'YP_899468.1'
p4820
sS'441770'
p4821
S'YP_001385962.1'
p4822
sS'300852'
p4823
S'YP_145504.1'
p4824
sS'37698'
p4825
S'NP_112663.1'
p4826
sS'2543'
p4827
S'NP_040401.1'
p4828
sS'184585'
p4829
S'YP_001293722.1'
p4830
sS'38614'
p4831
S'YP_637178.1'
p4832
sS'314231'
p4833
S'ZP_01440953.1'
p4834
sS'314230'
p4835
S'ZP_01094493.1'
p4836
sS'314232'
p4837
S'ZP_01004750.1'
p4838
sS'400121'
p4839
S'YP_803548.1'
p4840
sS'246194'
p4841
S'YP_361492.1'
p4842
sS'400122'
p4843
S'YP_803551.1'
p4844
sS'42353'
p4845
S'NP_052320.1'
p4846
sS'121759'
p4847
S'YP_537118.1'
p4848
sS'81583'
p4849
S'NP_620561.1'
p4850
sS'56335'
p4851
S'YP_842398.1'
p4852
sS'323118'
p4853
S'YP_851208.1'
p4854
sS'46436'
p4855
S'NP_612629.1'
p4856
sS'10514'
p4857
S'AP_000638.1'
p4858
sS'181088'
p4859
S'NP_945226.1'
p4860
sS'154579'
p4861
S'YP_097036.1'
p4862
sS'368736'
p4863
S'YP_950424.1'
p4864
sS'43116'
p4865
S'YP_214783.1'
p4866
sS'413999'
p4867
S'YP_001256144.1'
p4868
sS'340197'
p4869
S'ZP_00726848.1'
p4870
sS'81907'
p4871
S'YP_271975.1'
p4872
sS'2769'
p4873
S'NP_062504.1'
p4874
sS'10331'
p4875
S'NP_045296.1'
p4876
sS'329639'
p4877
S'NP_758524.1'
p4878
sS'10335'
p4879
S'YP_068407.1'
p4880
sS'70543'
p4881
S'YP_138252.1'
p4882
sS'2762'
p4883
S'NP_043287.1'
p4884
sS'426117'
p4885
S'ZP_01851668.1'
p4886
sS'57579'
p4887
S'NP_044927.1'
p4888
sS'70546'
p4889
S'YP_913782.1'
p4890
sS'342108'
p4891
S'YP_423922.1'
p4892
sS'342109'
p4893
S'YP_453401.1'
p4894
sS'222645'
p4895
S'NP_861690.1'
p4896
sS'9483'
p4897
S'NT_113711.2'
p4898
sS'7903'
p4899
S'NP_990962.1'
p4900
sS'7904'
p4901
S'NP_839836.1'
p4902
sS'36721'
p4903
S'YP_001382107.1'
p4904
sS'12241'
p4905
S'NP_062916.1'
p4906
sS'12242'
p4907
S'NP_597750.1'
p4908
sS'300175'
p4909
S'YP_170710.1'
p4910
sS'6279'
p4911
S'NP_694914.1'
p4912
sS'189918'
p4913
S'YP_941469.1'
p4914
sS'404217'
p4915
S'NZ_AAYS01000080.1'
p4916
sS'404216'
p4917
S'NZ_AAYT01000073.1'
p4918
sS'351607'
p4919
S'YP_873919.1'
p4920
sS'404214'
p4921
S'NZ_ABAT01000107.1'
p4922
sS'4952'
p4923
S'NP_075446.1'
p4924
sS'235201'
p4925
S'YP_223919.1'
p4926
sS'4956'
p4927
S'YP_355332.1'
p4928
sS'268747'
p4929
S'YP_214758.1'
p4930
sS'4954'
p4931
S'NP_040498.1'
p4932
sS'4955'
p4933
S'NP_040495.1'
p4934
sS'45709'
p4935
S'YP_089666.1'
p4936
sS'262177'
p4937
S'NP_046308.1'
p4938
sS'2613'
p4939
S'NP_040467.1'
p4940
sS'322710'
p4941
S'ZP_00420029.1'
p4942
sS'85752'
p4943
S'NP_049922.1'
p4944
sS'85753'
p4945
S'NP_543118.1'
p4946
sS'349124'
p4947
S'YP_001004004.1'
p4948
sS'349123'
p4949
S'ZP_01275232.1'
p4950
sS'190239'
p4951
S'NP_663316.1'
p4952
sS'49266'
p4953
S'YP_448636.1'
p4954
sS'49267'
p4955
S'NP_620736.1'
p4956
sS'10798'
p4957
S'NP_050021.1'
p4958
sS'10799'
p4959
S'NP_597741.1'
p4960
sS'269797'
p4961
S'YP_307181.1'
p4962
sS'10029'
p4963
S'YP_537131.1'
p4964
sS'10794'
p4965
S'NP_041248.1'
p4966
sS'121791'
p4967
S'NP_112028.1'
p4968
sS'1904'
p4969
S'NC_002112.1'
p4970
sS'1902'
p4971
S'NP_542205.1'
p4972
sS'110108'
p4973
S'NP_878198.1'
p4974
sS'113382'
p4975
S'YP_626698.1'
p4976
sS'362663'
p4977
S'YP_672570.1'
p4978
sS'289380'
p4979
S'YP_699929.1'
p4980
sS'851'
p4981
S'YP_003947.1'
p4982
sS'320372'
p4983
S'YP_337770.1'
p4984
sS'379731'
p4985
S'YP_001174678.1'
p4986
sS'298386'
p4987
S'YP_277308.1'
p4988
sS'265522'
p4989
S'YP_001031365.1'
p4990
sS'399599'
p4991
S'ZP_01437168.1'
p4992
sS'395879'
p4993
S'YP_001285725.1'
p4994
sS'195522'
p4995
S'YP_001351690.1'
p4996
sS'168014'
p4997
S'NP_740571.1'
p4998
sS'12336'
p4999
S'YP_398628.1'
p5000
sS'357291'
p5001
S'YP_913808.1'
p5002
sS'12331'
p5003
S'NP_620548.1'
p5004
sS'418136'
p5005
S'YP_001122771.1'
p5006
sS'312017'
p5007
S'XP_977305.1'
p5008
sS'46014'
p5009
S'NP_955553.1'
p5010
sS'119910'
p5011
S'NP_736587.1'
p5012
sS'169766'
p5013
S'NP_570730.1'
p5014
sS'373384'
p5015
S'YP_691710.1'
p5016
sS'266799'
p5017
S'NP_995307.1'
p5018
sS'29088'
p5019
S'YP_778772.1'
p5020
sS'190650'
p5021
S'NP_422557.1'
p5022
sS'10243'
p5023
S'NP_851781.1'
p5024
sS'29082'
p5025
S'NP_660091.1'
p5026
sS'29084'
p5027
S'NP_659248.1'
p5028
sS'7004'
p5029
S'NP_007302.1'
p5030
sS'29086'
p5031
S'YP_778824.1'
p5032
sS'10245'
p5033
S'YP_910501.1'
p5034
sS'447605'
p5035
S'YP_001285941.1'
p5036
sS'364106'
p5037
S'YP_544107.1'
p5038
sS'37705'
p5039
S'NP_941976.1'
p5040
sS'400682'
p5041
S'YP_001031210.1'
p5042
sS'447604'
p5043
S'YP_001285940.1'
p5044
sS'269084'
p5045
S'YP_654198.1'
p5046
sS'223926'
p5047
S'NP_801262.1'
p5048
sS'439843'
p5049
S'NZ_ABAL01000160.1'
p5050
sS'332054'
p5051
S'YP_309033.1'
p5052
sS'33771'
p5053
S'NP_542608.1'
p5054
sS'33773'
p5055
S'NP_620043.1'
p5056
sS'447606'
p5057
S'YP_001285942.1'
p5058
sS'11864'
p5059
S'NP_040550.1'
p5060
sS'11867'
p5061
S'NP_955602.1'
p5062
sS'374077'
p5063
S'YP_001429551.1'
p5064
sS'445987'
p5065
S'NZ_ABCY01000042.1'
p5066
sS'198466'
p5067
S'NP_665669.1'
p5068
sS'218387'
p5069
S'NP_777317.1'
p5070
sS'154334'
p5071
S'NP_598366.1'
p5072
sS'326037'
p5073
S'YP_001004397.1'
p5074
sS'243265'
p5075
S'NP_932060.1'
p5076
sS'78541'
p5077
S'NP_597912.1'
p5078
sS'78540'
p5079
S'NP_740661.1'
p5080
sS'13818'
p5081
S'NP_848123.2'
p5082
sS'747'
p5083
S'YP_232873.1'
p5084
sS'347257'
p5085
S'YP_001256886.1'
p5086
sS'447455'
p5087
S'NZ_ABBW01000085.1'
p5088
sS'175814'
p5089
S'NP_861547.1'
p5090
sS'447325'
p5091
S'YP_001293193.1'
p5092
sS'59538'
p5093
S'YP_337836.1'
p5094
sS'399782'
p5095
S'YP_778681.1'
p5096
sS'295358'
p5097
S'YP_116206.1'
p5098
sS'321023'
p5099
S'YP_238976.1'
p5100
sS'298551'
p5101
S'YP_473363.1'
p5102
sS'259564'
p5103
S'YP_567047.1'
p5104
sS'169691'
p5105
S'NP_877491.1'
p5106
sS'138950'
p5107
S'NP_740593.1'
p5108
sS'169693'
p5109
S'NP_877493.1'
p5110
sS'403897'
p5111
S'YP_794167.1'
p5112
sS'169696'
p5113
S'NC_004092.1'
p5114
sS'94939'
p5115
S'NP_443410.1'
p5116
sS'388399'
p5117
S'ZP_01748884.1'
p5118
sS'370623'
p5119
S'YP_579224.1'
p5120
sS'174142'
p5121
S'NP_932311.1'
p5122
sS'197772'
p5123
S'NP_647590.1'
p5124
sS'94420'
p5125
S'YP_086866.1'
p5126
sS'158879'
p5127
S'NP_808209.1'
p5128
sS'158878'
p5129
S'YP_182412.1'
p5130
sS'447214'
p5131
S'NZ_ABDT01000123.1'
p5132
sS'205895'
p5133
S'NP_149155.1'
p5134
sS'278186'
p5135
S'YP_980164.1'
p5136
sS'178354'
p5137
S'NP_758808.1'
p5138
sS'185207'
p5139
S'NP_694429.1'
p5140
sS'216389'
p5141
S'YP_001214841.1'
p5142
sS'151525'
p5143
S'YP_232845.1'
p5144
sS'382638'
p5145
S'YP_665486.1'
p5146
sS'405948'
p5147
S'YP_001109478.1'
p5148
sS'243231'
p5149
S'YP_016331.1'
p5150
sS'261591'
p5151
S'NZ_AAEP01000052.1'
p5152
sS'12888'
p5153
S'NC_001558.1'
p5154
sS'12889'
p5155
S'NC_001471.1'
p5156
sS'1270'
p5157
S'NP_613076.1'
p5158
sS'370438'
p5159
S'YP_001213470.1'
p5160
sS'12885'
p5161
S'NC_001553.1'
p5162
sS'216895'
p5163
S'YP_873921.1'
p5164
sS'12881'
p5165
S'NP_620655.1'
p5166
sS'11047'
p5167
S'NP_705594.1'
p5168
sS'224713'
p5169
S'YP_001293709.1'
p5170
sS'393118'
p5171
S'NZ_AARK01000357.1'
p5172
sS'40640'
p5173
S'NP_734378.1'
p5174
sS'224716'
p5175
S'YP_001293748.1'
p5176
sS'11041'
p5177
S'NP_803428.1'
p5178
sS'196399'
p5179
S'NC_001546.1'
p5180
sS'8242'
p5181
S'NP_858947.1'
p5182
sS'151537'
p5183
S'NP_076751.1'
p5184
sS'39293'
p5185
S'YP_778850.1'
p5186
sS'181399'
p5187
S'YP_636892.1'
p5188
sS'8795'
p5189
S'NP_115427.1'
p5190
sS'412021'
p5191
S'ZP_01347119.1'
p5192
sS'8797'
p5193
S'NP_007535.1'
p5194
sS'66261'
p5195
S'NP_045018.1'
p5196
sS'368407'
p5197
S'YP_001048406.1'
p5198
sS'290633'
p5199
S'YP_192887.1'
p5200
sS'66266'
p5201
S'NP_058538.1'
p5202
sS'193079'
p5203
S'YP_024412.1'
p5204
sS'222891'
p5205
S'YP_506835.1'
p5206
sS'328806'
p5207
S'YP_233110.1'
p5208
sS'123226'
p5209
S'YP_161168.1'
p5210
sS'368408'
p5211
S'YP_921237.1'
p5212
sS'3111'
p5213
S'NP_042278.1'
p5214
sS'307502'
p5215
S'ZP_00374760.1'
p5216
sS'299324'
p5217
S'YP_514590.1'
p5218
sS'1471'
p5219
S'NP_957662.1'
p5220
sS'332670'
p5221
S'YP_659576.1'
p5222
sS'334203'
p5223
S'NP_597740.1'
p5224
sS'31602'
p5225
S'NP_612600.1'
p5226
sS'31600'
p5227
S'NP_047236.1'
p5228
sS'151539'
p5229
S'NP_076827.1'
p5230
sS'28045'
p5231
S'NP_862585.1'
p5232
sS'31604'
p5233
S'YP_133828.1'
p5234
sS'47736'
p5235
S'NP_054009.1'
p5236
sS'1307'
p5237
S'NP_053062.1'
p5238
sS'266779'
p5239
S'YP_676634.1'
p5240
sS'360579'
p5241
S'YP_001086463.1'
p5242
sS'1308'
p5243
S'NP_957530.1'
p5244
sS'1309'
p5245
S'NP_148737.1'
p5246
sS'267377'
p5247
S'NP_988842.1'
p5248
sS'259931'
p5249
S'YP_024969.1'
p5250
sS'154819'
p5251
S'YP_636160.1'
p5252
sS'343516'
p5253
S'YP_512310.1'
p5254
sS'446807'
p5255
S'YP_001294907.1'
p5256
sS'154813'
p5257
S'YP_913301.1'
p5258
sS'31199'
p5259
S'YP_001382296.1'
p5260
sS'11303'
p5261
S'NP_065409.1'
p5262
sS'154816'
p5263
S'YP_913652.1'
p5264
sS'89462'
p5265
S'YP_087094.1'
p5266
sS'11307'
p5267
S'NP_042286.1'
p5268
sS'274541'
p5269
S'YP_133964.1'
p5270
sS'412966'
p5271
S'ZP_01951453.1'
p5272
sS'27687'
p5273
S'NP_943616.1'
p5274
sS'12402'
p5275
S'NP_945312.1'
p5276
sS'9833'
p5277
S'NP_008802.1'
p5278
sS'7594'
p5279
S'NP_008172.1'
p5280
sS'393115'
p5281
S'YP_667819.1'
p5282
sS'9837'
p5283
S'YP_001315071.1'
p5284
sS'290318'
p5285
S'YP_001131284.1'
p5286
sS'169963'
p5287
S'NP_466379.1'
p5288
sS'282712'
p5289
S'YP_611120.1'
p5290
sS'50794'
p5291
S'YP_001054801.1'
p5292
sS'186539'
p5293
S'NP_690587.1'
p5294
sS'186538'
p5295
S'NP_066251.1'
p5296
sS'7757'
p5297
S'NP_008159.1'
p5298
sS'143293'
p5299
S'NP_862544.1'
p5300
sS'394036'
p5301
S'YP_001019197.1'
p5302
sS'451708'
p5303
S'NZ_ABDL01000115.1'
p5304
sS'370895'
p5305
S'ZP_01342176.1'
p5306
sS'52108'
p5307
S'YP_097166.1'
p5308
sS'431944'
p5309
S'YP_001144443.1'
p5310
sS'431943'
p5311
S'YP_001397273.1'
p5312
sS'130371'
p5313
S'NP_597952.1'
p5314
sS'314287'
p5315
S'ZP_01225522.1'
p5316
sS'293614'
p5317
S'ZP_00340940.1'
p5318
sS'28829'
p5319
S'YP_740279.1'
p5320
sS'11275'
p5321
S'NP_116748.1'
p5322
sS'11277'
p5323
S'NP_955548.1'
p5324
sS'140016'
p5325
S'YP_203289.1'
p5326
sS'196164'
p5327
S'NP_739560.1'
p5328
sS'100785'
p5329
S'NC_000885.1'
p5330
sS'228582'
p5331
S'NP_054689.1'
p5332
sS'300411'
p5333
S'YP_001285759.1'
p5334
sS'431891'
p5335
S'YP_001111150.1'
p5336
sS'75746'
p5337
S'NP_734264.1'
p5338
sS'431893'
p5339
S'YP_001111079.1'
p5340
sS'181474'
p5341
S'NP_740165.1'
p5342
sS'181472'
p5343
S'NP_740152.1'
p5344
sS'12530'
p5345
S'NP_619653.1'
p5346
sS'96460'
p5347
S'NP_038238.1'
p5348
sS'227859'
p5349
S'NP_904322.1'
p5350
sS'76875'
p5351
S'NP_733962.1'
p5352
sS'12538'
p5353
S'YP_142354.1'
p5354
sS'181478'
p5355
S'NP_740204.1'
p5356
sS'352248'
p5357
S'YP_392510.1'
p5358
sS'32432'
p5359
S'YP_740082.1'
p5360
sS'3847'
p5361
S'YP_538827.1'
p5362
sS'145284'
p5363
S'YP_001294417.1'
p5364
sS'145286'
p5365
S'YP_001294331.1'
p5366
sS'273036'
p5367
S'YP_418033.1'
p5368
sS'194949'
p5369
S'NP_859416.1'
p5370
sS'194948'
p5371
S'NP_859245.1'
p5372
sS'412965'
p5373
S'YP_001219800.1'
p5374
sS'220638'
p5375
S'NP_874383.1'
p5376
sS'60887'
p5377
S'YP_001315058.1'
p5378
sS'55529'
p5379
S'NP_113549.1'
p5380
sS'337042'
p5381
S'NP_040317.1'
p5382
sS'222523'
p5383
S'NP_982247.1'
p5384
sS'98377'
p5385
S'YP_001054905.1'
p5386
sS'60889'
p5387
S'NP_775719.1'
p5388
sS'439842'
p5389
S'NZ_ABAK01000075.1'
p5390
sS'145266'
p5391
S'NP_073769.1'
p5392
sS'281090'
p5393
S'YP_063243.1'
p5394
sS'227940'
p5395
S'NP_839889.1'
p5396
sS'227941'
p5397
S'NP_829880.1'
p5398
sS'145262'
p5399
S'NP_052561.1'
p5400
sS'209529'
p5401
S'NP_733846.1'
p5402
sS'77698'
p5403
S'YP_249767.1'
p5404
sS'346873'
p5405
S'YP_717900.1'
p5406
sS'273035'
p5407
S'YP_138239.1'
p5408
sS'27405'
p5409
S'YP_238267.1'
p5410
sS'225159'
p5411
S'YP_492567.1'
p5412
sS'331978'
p5413
S'ZP_01326147.1'
p5414
sS'118655'
p5415
S'NP_982306.1'
p5416
sS'6669'
p5417
S'NP_008633.1'
p5418
sS'445517'
p5419
S'YP_001430020.1'
p5420
sS'333668'
p5421
S'XP_766748.1'
p5422
sS'196398'
p5423
S'NP_736599.1'
p5424
sS'106331'
p5425
S'NP_733922.1'
p5426
sS'6661'
p5427
S'NP_007120.1'
p5428
sS'12657'
p5429
S'NP_042675.1'
p5430
sS'161213'
p5431
S'NP_862429.1'
p5432
sS'10879'
p5433
S'NP_620352.1'
p5434
sS'51751'
p5435
S'YP_313706.1'
p5436
sS'313589'
p5437
S'ZP_00997470.1'
p5438
sS'412694'
p5439
S'YP_897665.1'
p5440
sS'55987'
p5441
S'YP_145807.1'
p5442
sS'154784'
p5443
S'NP_085473.1'
p5444
sS'10871'
p5445
S'NP_955532.1'
p5446
sS'10870'
p5447
S'NP_510894.1'
p5448
sS'465518'
p5449
S'NZ_ABFF01000081.1'
p5450
sS'10872'
p5451
S'NP_040659.1'
p5452
sS'10876'
p5453
S'NP_039816.1'
p5454
sS'302100'
p5455
S'YP_213944.1'
p5456
sS'386586'
p5457
S'YP_654698.1'
p5458
sS'75320'
p5459
S'NP_899629.1'
p5460
sS'386656'
p5461
S'YP_001165249.1'
p5462
sS'458089'
p5463
S'YP_001425584.1'
p5464
sS'200255'
p5465
S'NP_848533.1'
p5466
sS'56486'
p5467
S'NP_620071.1'
p5468
sS'2283'
p5469
S'NP_976265.1'
p5470
sS'2287'
p5471
S'YP_025316.1'
p5472
sS'65743'
p5473
S'NP_734045.1'
p5474
sS'64698'
p5475
S'NP_620556.1'
p5476
sS'425104'
p5477
S'ZP_01922236.1'
p5478
sS'231374'
p5479
S'NP_857631.1'
p5480
sS'60532'
p5481
S'YP_214847.1'
p5482
sS'173707'
p5483
S'NP_438168.1'
p5484
sS'159859'
p5485
S'NP_976112.1'
p5486
sS'4547'
p5487
S'YP_054723.1'
p5488
sS'100899'
p5489
S'NP_149969.1'
p5490
sS'114615'
p5491
S'YP_001208940.1'
p5492
sS'42349'
p5493
S'NP_007341.1'
p5494
sS'262727'
p5495
S'ZP_00349647.1'
p5496
sS'119912'
p5497
S'YP_009040.1'
p5498
sS'445515'
p5499
S'YP_001429895.1'
p5500
sS'262723'
p5501
S'YP_278805.1'
p5502
sS'262722'
p5503
S'YP_288063.1'
p5504
sS'2577'
p5505
S'NP_040417.1'
p5506
sS'351627'
p5507
S'YP_001181535.1'
p5508
sS'2573'
p5509
S'NP_040460.1'
p5510
sS'286636'
p5511
S'YP_061204.1'
p5512
sS'386100'
p5513
S'YP_001090223.1'
p5514
sS'332421'
p5515
S'YP_659537.1'
p5516
sS'105154'
p5517
S'NP_054654.1'
p5518
sS'2371'
p5519
S'NP_054015.1'
p5520
sS'260909'
p5521
S'YP_006462.1'
p5522
sS'114416'
p5523
S'YP_001210364.1'
p5524
sS'2595'
p5525
S'NP_040423.1'
p5526
sS'2590'
p5527
S'NP_040418.1'
p5528
sS'10658'
p5529
S'NP_040702.1'
p5530
sS'2592'
p5531
S'YP_740348.1'
p5532
sS'342110'
p5533
S'ZP_00946960.1'
p5534
sS'10654'
p5535
S'NP_056763.1'
p5536
sS'10651'
p5537
S'NP_127505.1'
p5538
sS'264732'
p5539
S'YP_431348.1'
p5540
sS'10653'
p5541
S'NP_039820.1'
p5542
sS'64186'
p5543
S'NP_597811.1'
p5544
sS'75747'
p5545
S'NP_624349.1'
p5546
sS'7918'
p5547
S'NP_839849.1'
p5548
sS'401526'
p5549
S'ZP_01667854.1'
p5550
sS'300180'
p5551
S'YP_170706.1'
p5552
sS'7913'
p5553
S'NP_740243.1'
p5554
sS'7917'
p5555
S'YP_636996.1'
p5556
sS'399795'
p5557
S'ZP_01522922.1'
p5558
sS'106333'
p5559
S'NP_051036.1'
p5560
sS'365054'
p5561
S'YP_001293774.1'
p5562
sS'11623'
p5563
S'NP_694852.1'
p5564
sS'357347'
p5565
S'ZP_01250496.1'
p5566
sS'359391'
p5567
S'YP_419282.1'
p5568
sS'971'
p5569
S'YP_209476.1'
p5570
sS'135750'
p5571
S'NC_003827.1'
p5572
sS'85585'
p5573
S'YP_637126.1'
p5574
sS'6287'
p5575
S'NP_954726.1'
p5576
sS'272843'
p5577
S'NP_246953.1'
p5578
sS'6282'
p5579
S'NP_008379.1'
p5580
sS'102822'
p5581
S'YP_636466.1'
p5582
sS'81824'
p5583
S'NP_696995.1'
p5584
sS'180'
p5585
S'YP_220442.1'
p5586
sS'12139'
p5587
S'NP_736584.1'
p5588
sS'226900'
p5589
S'NP_835143.1'
p5590
sS'141833'
p5591
S'NP_663744.1'
p5592
sS'387344'
p5593
S'YP_796426.1'
p5594
sS'242527'
p5595
S'NP_944308.1'
p5596
sS'42725'
p5597
S'YP_161181.1'
p5598
sS'58103'
p5599
S'NP_041191.1'
p5600
sS'204379'
p5601
S'YP_654288.1'
p5602
sS'290315'
p5603
S'ZP_00513511.1'
p5604
sS'290314'
p5605
S'YP_164338.1'
p5606
sS'290317'
p5607
S'YP_913151.1'
p5608
sS'313606'
p5609
S'ZP_01695245.1'
p5610
sS'53260'
p5611
S'NP_689462.1'
p5612
sS'231023'
p5613
S'NP_943192.1'
p5614
sS'9580'
p5615
S'NP_007834.1'
p5616
sS'172278'
p5617
S'NP_803558.1'
p5618
sS'362948'
p5619
S'YP_536845.1'
p5620
sS'176285'
p5621
S'NP_945213.1'
p5622
sS'299200'
p5623
S'YP_254723.1'
p5624
sS'373747'
p5625
S'YP_950856.1'
p5626
sS'294631'
p5627
S'YP_112541.1'
p5628
sS'329288'
p5629
S'YP_241106.1'
p5630
sS'48387'
p5631
S'NP_777476.1'
p5632
sS'1916'
p5633
S'NP_862093.1'
p5634
sS'113391'
p5635
S'YP_626581.1'
p5636
sS'60712'
p5637
S'YP_001427421.1'
p5638
sS'60711'
p5639
S'YP_626432.1'
p5640
sS'11628'
p5641
S'NP_899215.1'
p5642
sS'143900'
p5643
S'NP_991040.1'
p5644
sS'60714'
p5645
S'NP_044736.1'
p5646
sS'247156'
p5647
S'YP_122142.1'
p5648
sS'224399'
p5649
S'NP_818772.1'
p5650
sS'198804'
p5651
S'NP_848539.1'
p5652
sS'158463'
p5653
S'YP_001294934.1'
p5654
sS'116056'
p5655
S'NP_619773.1'
p5656
sS'12348'
p5657
S'YP_001285926.1'
p5658
sS'436907'
p5659
S'XP_001647511.1'
p5660
sS'85698'
p5661
S'YP_195926.1'
p5662
sS'282459'
p5663
S'YP_044712.1'
p5664
sS'235600'
p5665
S'NP_085094.1'
p5666
sS'62977'
p5667
S'YP_048132.1'
p5668
sS'10497'
p5669
S'NP_955562.1'
p5670
sS'36427'
p5671
S'YP_392516.1'
p5672
sS'48253'
p5673
S'YP_001382245.1'
p5674
sS'10493'
p5675
S'YP_031677.1'
p5676
sS'48257'
p5677
S'NP_044373.1'
p5678
sS'312062'
p5679
S'YP_803552.1'
p5680
sS'882'
p5681
S'YP_012604.1'
p5682
sS'10273'
p5683
S'NP_051881.1'
p5684
sS'129727'
p5685
S'NP_958041.1'
p5686
sS'10271'
p5687
S'NP_052050.1'
p5688
sS'344752'
p5689
S'YP_337862.1'
p5690
sS'44026'
p5691
S'YP_950478.1'
p5692
sS'10279'
p5693
S'NP_044114.1'
p5694
sS'44024'
p5695
S'YP_001040007.1'
p5696
sS'294746'
p5697
S'XP_001487827.1'
p5698
sS'282458'
p5699
S'YP_042133.1'
p5700
sS'82676'
p5701
S'NP_542623.1'
p5702
sS'338473'
p5703
S'YP_001333675.1'
p5704
sS'290400'
p5705
S'YP_512224.1'
p5706
sS'94700'
p5707
S'NP_620854.1'
p5708
sS'127507'
p5709
S'NP_059540.1'
p5710
sS'451757'
p5711
S'NZ_ABDY01000055.1'
p5712
sS'10406'
p5713
S'NP_955537.1'
p5714
sS'9886'
p5715
S'NP_663804.1'
p5716
sS'29272'
p5717
S'NP_046154.1'
p5718
sS'29271'
p5719
S'NP_734112.1'
p5720
sS'95602'
p5721
S'YP_232832.1'
p5722
sS'298970'
p5723
S'NC_006457.1'
p5724
sS'160492'
p5725
S'NP_300059.1'
p5726
sS'337043'
p5727
S'NP_077122.1'
p5728
sS'33763'
p5729
S'NP_734418.1'
p5730
sS'33760'
p5731
S'YP_611154.1'
p5732
sS'44158'
p5733
S'NP_819019.1'
p5734
sS'41459'
p5735
S'NP_734292.1'
p5736
sS'37064'
p5737
S'YP_254648.1'
p5738
sS'146500'
p5739
S'YP_077277.1'
p5740
sS'295319'
p5741
S'YP_153444.1'
p5742
sS'8928'
p5743
S'NP_054683.1'
p5744
sS'777'
p5745
S'NP_052875.1'
p5746
sS'84412'
p5747
S'NC_004358.1'
p5748
sS'280702'
p5749
S'YP_044805.1'
p5750
sS'280701'
p5751
S'YP_164334.1'
p5752
sS'183540'
p5753
S'YP_588082.1'
p5754
sS'155905'
p5755
S'NP_777532.1'
p5756
sS'255431'
p5757
S'YP_006644.1'
p5758
sS'41678'
p5759
S'AP_000497.1'
p5760
sS'194408'
p5761
S'YP_089602.1'
p5762
sS'269213'
p5763
S'YP_054425.1'
p5764
sS'110926'
p5765
S'YP_448789.1'
p5766
sS'347962'
p5767
S'YP_338236.1'
p5768
sS'3055'
p5769
S'NP_958426.1'
p5770
sS'88663'
p5771
S'NP_443605.1'
p5772
sS'3053'
p5773
S'NP_046150.1'
p5774
sS'48723'
p5775
S'NP_944736.1'
p5776
sS'298333'
p5777
S'NP_047402.1'
p5778
sS'208491'
p5779
S'NP_849171.1'
p5780
sS'115714'
p5781
S'YP_232791.1'
p5782
sS'115713'
p5783
S'NP_225267.1'
p5784
sS'143525'
p5785
S'YP_138317.1'
p5786
sS'115711'
p5787
S'NP_445665.1'
p5788
sS'171101'
p5789
S'NP_359637.1'
p5790
sS'31721'
p5791
S'NP_705701.1'
p5792
sS'31722'
p5793
S'NP_612813.1'
p5794
sS'157899'
p5795
S'NP_666588.1'
p5796
sS'176280'
p5797
S'NP_863258.1'
p5798
sS'181450'
p5799
S'NP_740009.1'
p5800
sS'172296'
p5801
S'YP_077176.1'
p5802
sS'1685'
p5803
S'NP_052880.1'
p5804
sS'181453'
p5805
S'NP_740022.1'
p5806
sS'1686'
p5807
S'YP_241109.1'
p5808
sS'373956'
p5809
S'YP_778668.1'
p5810
sS'72003'
p5811
S'NP_046818.1'
p5812
sS'358'
p5813
S'YP_086791.1'
p5814
sS'255238'
p5815
S'YP_164806.1'
p5816
sS'12222'
p5817
S'NP_734202.1'
p5818
sS'294381'
p5819
S'XP_657607.1'
p5820
sS'8255'
p5821
S'NP_037594.1'
p5822
sS'72149'
p5823
S'NP_740444.1'
p5824
sS'381124'
p5825
S'YP_588429.1'
p5826
sS'666'
p5827
S'YP_209485.1'
p5828
sS'298334'
p5829
S'YP_067936.1'
p5830
sS'137591'
p5831
S'YP_534786.1'
p5832
sS'1265'
p5833
S'NP_044348.1'
p5834
sS'329855'
p5835
S'NP_695028.1'
p5836
sS'11053'
p5837
S'NP_733811.1'
p5838
sS'50365'
p5839
S'NP_777314.1'
p5840
sS'226583'
p5841
S'NP_821073.1'
p5842
sS'454169'
p5843
S'NZ_ABEM01000049.1'
p5844
sS'291262'
p5845
S'YP_097283.1'
p5846
sS'291263'
p5847
S'YP_097010.1'
p5848
sS'34391'
p5849
S'YP_313641.1'
p5850
sS'8787'
p5851
S'NP_115362.1'
p5852
sS'291264'
p5853
S'YP_097088.1'
p5854
sS'291265'
p5855
S'YP_097231.1'
p5856
sS'298338'
p5857
S'YP_164800.1'
p5858
sS'263374'
p5859
S'NP_996610.1'
p5860
sS'342564'
p5861
S'YP_654755.1'
p5862
sS'73815'
p5863
S'NP_683518.1'
p5864
sS'7612'
p5865
S'NP_803169.1'
p5866
sS'329289'
p5867
S'NC_007725.1'
p5868
sS'252305'
p5869
S'ZP_01001682.1'
p5870
sS'47929'
p5871
S'YP_068317.1'
p5872
sS'156690'
p5873
S'NP_620480.1'
p5874
sS'29057'
p5875
S'NP_563595.1'
p5876
sS'411359'
p5877
S'YP_001427341.1'
p5878
sS'72036'
p5879
S'YP_271856.1'
p5880
sS'332648'
p5881
S'XP_001561441.1'
p5882
sS'28583'
p5883
S'NP_043749.1'
p5884
sS'360099'
p5885
S'NZ_AAYV01000075.1'
p5886
sS'143336'
p5887
S'NP_443566.1'
p5888
sS'143337'
p5889
S'NP_443592.1'
p5890
sS'143334'
p5891
S'NP_443397.1'
p5892
sS'1314'
p5893
S'YP_232785.1'
p5894
sS'1313'
p5895
S'YP_758625.1'
p5896
sS'143333'
p5897
S'NP_443384.1'
p5898
sS'1311'
p5899
S'NP_053006.1'
p5900
sS'406425'
p5901
S'ZP_01567164.1'
p5902
sS'34649'
p5903
S'YP_001427354.1'
p5904
sS'72491'
p5905
S'NP_068655.1'
p5906
sS'28901'
p5907
S'YP_271813.1'
p5908
sS'12436'
p5909
S'NC_002602.2'
p5910
sS'347966'
p5911
S'YP_338183.1'
p5912
sS'60710'
p5913
S'YP_001427434.1'
p5914
sS'12433'
p5915
S'NP_569131.1'
p5916
sS'12431'
p5917
S'NP_569137.1'
p5918
sS'434309'
p5919
S'YP_001210296.1'
p5920
sS'4236'
p5921
S'YP_398390.1'
p5922
sS'454167'
p5923
S'NZ_ABEH01000074.1'
p5924
sS'4232'
p5925
S'YP_588182.1'
p5926
sS'380749'
p5927
S'ZP_02061653.1'
p5928
sS'225725'
p5929
S'NP_852555.1'
p5930
sS'225726'
p5931
S'NP_852605.1'
p5932
sS'333348'
p5933
S'YP_446996.1'
p5934
sS'61616'
p5935
S'YP_637165.1'
p5936
sS'27675'
p5937
S'YP_220692.1'
p5938
sS'177416'
p5939
S'YP_170686.1'
p5940
sS'436017'
p5941
S'XP_001422960.1'
p5942
sS'50562'
p5943
S'YP_448750.1'
p5944
sS'353152'
p5945
S'XP_628696.1'
p5946
sS'7729'
p5947
S'NP_038250.1'
p5948
sS'31503'
p5949
S'NP_619744.1'
p5950
sS'31504'
p5951
S'NC_003889.1'
p5952
sS'145527'
p5953
S'YP_173348.1'
p5954
sS'31507'
p5955
S'YP_803545.1'
p5956
sS'31508'
p5957
S'YP_529823.1'
p5958
sS'379891'
p5959
S'YP_758618.1'
p5960
sS'186540'
p5961
S'YP_138527.1'
p5962
sS'37012'
p5963
S'XR_025641.1'
p5964
sS'221262'
p5965
S'YP_249455.1'
p5966
sS'217026'
p5967
S'NP_955665.1'
p5968
sS'130369'
p5969
S'YP_009224.1'
p5970
sS'13690'
p5971
S'YP_667821.1'
p5972
sS'35350'
p5973
S'NP_604468.1'
p5974
sS'449401'
p5975
S'YP_001425524.1'
p5976
sS'374675'
p5977
S'ZP_01308888.1'
p5978
sS'50589'
p5979
S'YP_054482.1'
p5980
sS'61126'
p5981
S'YP_163880.1'
p5982
sS'61125'
p5983
S'YP_163867.1'
p5984
sS'159252'
p5985
S'NP_476526.1'
p5986
sS'293644'
p5987
S'YP_308659.1'
p5988
sS'228908'
p5989
S'NP_963830.1'
p5990
sS'322098'
p5991
S'YP_456889.1'
p5992
sS'11207'
p5993
S'YP_138518.1'
p5994
sS'267747'
p5995
S'YP_057020.1'
p5996
sS'111418'
p5997
S'NP_624339.1'
p5998
sS'28833'
p5999
S'YP_025935.1'
p6000
sS'373177'
p6001
S'YP_626472.1'
p6002
sS'198094'
p6003
S'NP_847883.1'
p6004
sS'28835'
p6005
S'NP_008367.1'
p6006
sS'4129'
p6007
S'YP_001430157.1'
p6008
sS'76869'
p6009
S'ZP_01717374.1'
p6010
sS'39089'
p6011
S'YP_778876.1'
p6012
sS'12506'
p6013
S'NP_942555.1'
p6014
sS'181404'
p6015
S'NP_739671.1'
p6016
sS'12227'
p6017
S'NP_734212.1'
p6018
sS'362692'
p6019
S'YP_438202.1'
p6020
sS'12509'
p6021
S'YP_001129515.1'
p6022
sS'51369'
p6023
S'NP_955752.1'
p6024
sS'334802'
p6025
S'ZP_00932215.1'
p6026
sS'35289'
p6027
S'NP_619658.1'
p6028
sS'35288'
p6029
S'NP_619666.2'
p6030
sS'5689'
p6031
S'NP_050068.1'
p6032
sS'245147'
p6033
S'YP_626607.1'
p6034
sS'59922'
p6035
S'YP_001019018.1'
p6036
sS'89825'
p6037
S'NP_976151.1'
p6038
sS'373412'
p6039
S'YP_655865.1'
p6040
sS'10710'
p6041
S'NP_955536.1'
p6042
sS'35281'
p6043
S'NP_671721.1'
p6044
sS'73149'
p6045
S'NP_733970.1'
p6046
sS'35287'
p6047
S'NP_734463.1'
p6048
sS'35286'
p6049
S'NP_042587.1'
p6050
sS'411465'
p6051
S'NZ_ABEE01000022.1'
p6052
sS'279808'
p6053
S'YP_254609.1'
p6054
sS'93199'
p6055
S'YP_001256938.1'
p6056
sS'55884'
p6057
S'NP_599085.1'
p6058
sS'340047'
p6059
S'YP_424812.1'
p6060
sS'6674'
p6061
S'NP_954739.1'
p6062
sS'351508'
p6063
S'YP_406565.1'
p6064
sS'357290'
p6065
S'YP_913756.1'
p6066
sS'12643'
p6067
S'NP_671691.1'
p6068
sS'383407'
p6069
S'NZ_AAQN01000001.1'
p6070
sS'34508'
p6071
S'YP_026090.1'
p6072
sS'185636'
p6073
S'NP_958104.1'
p6074
sS'185793'
p6075
S'NP_660169.1'
p6076
sS'130499'
p6077
S'NP_899151.1'
p6078
sS'187420'
p6079
S'NP_277018.1'
p6080
sS'4054'
p6081
S'YP_087030.1'
p6082
sS'76912'
p6083
S'YP_740422.1'
p6084
sS'273133'
p6085
S'YP_418234.1'
p6086
sS'430558'
p6087
S'NZ_AAYF01000015.1'
p6088
sS'257310'
p6089
S'NP_891547.1'
p6090
sS'12345'
p6091
S'NP_073711.1'
p6092
sS'257313'
p6093
S'NP_882366.1'
p6094
sS'257314'
p6095
S'NP_965835.1'
p6096
sS'269484'
p6097
S'YP_303574.1'
p6098
sS'160595'
p6099
S'YP_220770.1'
p6100
sS'454168'
p6101
S'NZ_ABEW01000063.1'
p6102
sS'10868'
p6103
S'NP_047361.1'
p6104
sS'10869'
p6105
S'NP_039622.1'
p6106
sS'10862'
p6107
S'NP_536680.1'
p6108
sS'10867'
p6109
S'NP_955531.1'
p6110
sS'260378'
p6111
S'NP_958315.1'
p6112
sS'260379'
p6113
S'NP_958321.1'
p6114
sS'69293'
p6115
S'NP_443423.1'
p6116
sS'10276'
p6117
S'NP_570310.1'
p6118
sS'260804'
p6119
S'YP_026000.1'
p6120
sS'465516'
p6121
S'NZ_ABFG01000050.1'
p6122
sS'52437'
p6123
S'YP_044764.1'
p6124
sS'63612'
p6125
S'YP_257145.1'
p6126
sS'52435'
p6127
S'YP_980190.1'
p6128
sS'260373'
p6129
S'YP_022750.1'
p6130
sS'286604'
p6131
S'ZP_00876289.1'
p6132
sS'331627'
p6133
S'YP_453679.1'
p6134
sS'100887'
p6135
S'NP_059452.1'
p6136
sS'55951'
p6137
S'NP_813807.1'
p6138
sS'100880'
p6139
S'NP_597914.1'
p6140
sS'75590'
p6141
S'NP_047271.1'
p6142
sS'357285'
p6143
S'YP_913691.1'
p6144
sS'323848'
p6145
S'YP_413506.1'
p6146
sS'357287'
p6147
S'YP_913730.1'
p6148
sS'357286'
p6149
S'YP_913717.1'
p6150
sS'90963'
p6151
S'NP_510879.1'
p6152
sS'392500'
p6153
S'ZP_01543639.1'
p6154
sS'90961'
p6155
S'NP_478343.1'
p6156
sS'357282'
p6157
S'YP_913626.1'
p6158
sS'43130'
p6159
S'NP_871747.1'
p6160
sS'2568'
p6161
S'NP_040407.1'
p6162
sS'390333'
p6163
S'YP_619799.1'
p6164
sS'262719'
p6165
S'YP_279470.1'
p6166
sS'405554'
p6167
S'YP_803217.1'
p6168
sS'2562'
p6169
S'NP_040405.1'
p6170
sS'373398'
p6171
S'YP_001427385.1'
p6172
sS'2567'
p6173
S'NP_040450.1'
p6174
sS'90410'
p6175
S'NP_597885.1'
p6176
sS'56350'
p6177
S'YP_842385.1'
p6178
sS'397945'
p6179
S'YP_973101.1'
p6180
sS'296210'
p6181
S'YP_271923.1'
p6182
sS'93465'
p6183
S'YP_031678.1'
p6184
sS'101688'
p6185
S'NP_736605.1'
p6186
sS'292565'
p6187
S'YP_406556.1'
p6188
sS'404589'
p6189
S'YP_001381670.1'
p6190
sS'360110'
p6191
S'ZP_01100984.1'
p6192
sS'220608'
p6193
S'NP_631956.1'
p6194
sS'69614'
p6195
S'YP_001434552.1'
p6196
sS'347329'
p6197
S'YP_001294508.1'
p6198
sS'57553'
p6199
S'YP_097270.1'
p6200
sS'221866'
p6201
S'YP_220601.1'
p6202
sS'7924'
p6203
S'NP_839823.1'
p6204
sS'57550'
p6205
S'YP_097049.1'
p6206
sS'221863'
p6207
S'YP_220549.1'
p6208
sS'10649'
p6209
S'NP_619550.1'
p6210
sS'10310'
p6211
S'NP_044544.1'
p6212
sS'299321'
p6213
S'YP_514722.1'
p6214
sS'194397'
p6215
S'YP_223924.1'
p6216
sS'396359'
p6217
S'YP_699982.1'
p6218
sS'7928'
p6219
S'NP_991066.1'
p6220
sS'10317'
p6221
S'YP_164516.1'
p6222
sS'13353'
p6223
S'NP_955730.1'
p6224
sS'359961'
p6225
S'YP_460017.1'
p6226
sS'416870'
p6227
S'YP_001033799.1'
p6228
sS'133434'
p6229
S'YP_492665.1'
p6230
sS'191436'
p6231
S'NP_659029.1'
p6232
sS'395019'
p6233
S'ZP_01573768.1'
p6234
sS'43767'
p6235
S'NP_858518.1'
p6236
sS'419665'
p6237
S'YP_001325695.1'
p6238
sS'227086'
p6239
S'YP_778616.1'
p6240
sS'4932'
p6241
S'NP_976247.1'
p6242
sS'57482'
p6243
S'YP_001285392.1'
p6244
sS'235994'
p6245
S'YP_392481.1'
p6246
sS'57486'
p6247
S'YP_220575.1'
p6248
sS'332032'
p6249
S'YP_863935.1'
p6250
sS'36704'
p6251
S'NP_818916.1'
p6252
sS'224308'
p6253
S'YP_054595.1'
p6254
sS'97344'
p6255
S'NP_597696.1'
p6256
sS'52188'
p6257
S'YP_086918.1'
p6258
sS'397948'
p6259
S'ZP_01711933.1'
p6260
sS'2102'
p6261
S'NP_040430.1'
p6262
sS'345250'
p6263
S'YP_764456.1'
p6264
sS'2105'
p6265
S'NP_066397.1'
p6266
sS'6500'
p6267
S'YP_003699.1'
p6268
sS'2639'
p6269
S'NP_040476.1'
p6270
sS'2638'
p6271
S'NP_040472.1'
p6272
sS'181007'
p6273
S'NP_821153.1'
p6274
sS'412022'
p6275
S'YP_001029342.1'
p6276
sS'152219'
p6277
S'YP_415514.1'
p6278
sS'299218'
p6279
S'YP_214887.1'
p6280
sS'329290'
p6281
S'YP_459912.1'
p6282
sS'9598'
p6283
S'XR_025634.1'
p6284
sS'176299'
p6285
S'YP_190103.1'
p6286
sS'9597'
p6287
S'NP_008211.1'
p6288
sS'205879'
p6289
S'NP_818538.1'
p6290
sS'391295'
p6291
S'YP_001199560.1'
p6292
sS'9593'
p6293
S'NP_008224.1'
p6294
sS'195099'
p6295
S'YP_179867.1'
p6296
sS'33113'
p6297
S'NP_783296.1'
p6298
sS'265294'
p6299
S'YP_003866.1'
p6300
sS'289367'
p6301
S'YP_238301.1'
p6302
sS'289365'
p6303
S'YP_238483.1'
p6304
sS'870'
p6305
S'NP_073217.1'
p6306
sS'418127'
p6307
S'YP_001443288.1'
p6308
sS'205869'
p6309
S'NP_817591.1'
p6310
sS'9'
p6311
S'NP_858066.1'
p6312
sS'12353'
p6313
S'NP_861963.1'
p6314
sS'345073'
p6315
S'YP_001218716.1'
p6316
sS'290402'
p6317
S'YP_001312166.1'
p6318
sS'10484'
p6319
S'YP_589079.1'
p6320
sS'42882'
p6321
S'NP_620107.1'
p6322
sS'12355'
p6323
S'YP_003944.1'
p6324
sS'10261'
p6325
S'NP_597675.1'
p6326
sS'10266'
p6327
S'NP_659724.1'
p6328
sS'44522'
p6329
S'NP_008444.1'
p6330
sS'136084'
p6331
S'NP_597932.1'
p6332
sS'10464'
p6333
S'YP_006343.1'
p6334
sS'191217'
p6335
S'NP_840025.2'
p6336
sS'306025'
p6337
S'YP_001285479.1'
p6338
sS'39640'
p6339
S'YP_184911.1'
p6340
sS'271257'
p6341
S'YP_122352.1'
p6342
sS'388629'
p6343
S'YP_654340.1'
p6344
sS'290434'
p6345
S'YP_161623.1'
p6346
sS'106962'
p6347
S'NP_051710.1'
p6348
sS'10468'
p6349
S'NP_542762.1'
p6350
sS'211866'
p6351
S'NP_722557.1'
p6352
sS'68455'
p6353
S'YP_001004164.1'
p6354
sS'391165'
p6355
S'YP_746258.1'
p6356
sS'36673'
p6357
S'NP_818799.1'
p6358
sS'400668'
p6359
S'YP_001343317.1'
p6360
sS'400667'
p6361
S'YP_001086451.1'
p6362
sS'388401'
p6363
S'ZP_01743817.1'
p6364
sS'388400'
p6365
S'ZP_01726213.1'
p6366
sS'314265'
p6367
S'ZP_01446405.1'
p6368
sS'352472'
p6369
S'XP_647831.1'
p6370
sS'146518'
p6371
S'NP_361083.1'
p6372
sS'236750'
p6373
S'NP_943778.1'
p6374
sS'54905'
p6375
S'NP_991001.1'
p6376
sS'33756'
p6377
S'NP_786903.1'
p6378
sS'186769'
p6379
S'NP_660174.1'
p6380
sS'11840'
p6381
S'NP_056791.1'
p6382
sS'11191'
p6383
S'NP_056879.1'
p6384
sS'159971'
p6385
S'NP_852175.1'
p6386
sS'37293'
p6387
S'NT_166745.1'
p6388
sS'311415'
p6389
S'NP_777545.1'
p6390
sS'83332'
p6391
S'YP_178027.1'
p6392
sS'83333'
p6393
S'YP_588479.2'
p6394
sS'83331'
p6395
S'YP_061213.1'
p6396
sS'243243'
p6397
S'YP_884423.1'
p6398
sS'417192'
p6399
S'YP_001293194.1'
p6400
sS'194544'
p6401
S'NP_775077.1'
p6402
sS'62140'
p6403
S'YP_918957.1'
p6404
sS'367850'
p6405
S'YP_619889.1'
p6406
sS'54290'
p6407
S'NP_803209.1'
p6408
sS'6876'
p6409
S'YP_214900.1'
p6410
sS'7119'
p6411
S'NP_803449.1'
p6412
sS'48752'
p6413
S'NP_944710.1'
p6414
sS'60517'
p6415
S'NP_852681.1'
p6416
sS'194415'
p6417
S'YP_089589.1'
p6418
sS'129009'
p6419
S'NP_597920.1'
p6420
sS'60516'
p6421
S'YP_001031222.2'
p6422
sS'222079'
p6423
S'NP_148956.1'
p6424
sS'1075'
p6425
S'NP_775696.1'
p6426
sS'68449'
p6427
S'YP_138341.1'
p6428
sS'164608'
p6429
S'YP_718204.1'
p6430
sS'13006'
p6431
S'YP_001294162.1'
p6432
sS'384676'
p6433
S'YP_610948.1'
p6434
sS'83201'
p6435
S'NP_047372.1'
p6436
sS'416269'
p6437
S'YP_001054725.1'
p6438
sS'393123'
p6439
S'ZP_01928793.1'
p6440
sS'446549'
p6441
S'YP_001293186.1'
p6442
sS'8226'
p6443
S'NP_955704.1'
p6444
sS'8228'
p6445
S'NP_775732.1'
p6446
sS'670'
p6447
S'NP_061312.1'
p6448
sS'672'
p6449
S'YP_001393235.1'
p6450
sS'254945'
p6451
S'YP_197834.1'
p6452
sS'41714'
p6453
S'YP_758466.1'
p6454
sS'314225'
p6455
S'YP_459900.1'
p6456
sS'280354'
p6457
S'NZ_AAEN01000030.1'
p6458
sS'280355'
p6459
S'NZ_AAEO01000042.1'
p6460
sS'443255'
p6461
S'NP_044290.1'
p6462
sS'224735'
p6463
S'YP_784451.1'
p6464
sS'59463'
p6465
S'NT_166782.1'
p6466
sS'291272'
p6467
S'YP_278132.1'
p6468
sS'39478'
p6469
S'YP_783848.1'
p6470
sS'290611'
p6471
S'YP_232880.1'
p6472
sS'273302'
p6473
S'YP_227355.1'
p6474
sS'402404'
p6475
S'YP_001293839.1'
p6476
sS'645'
p6477
S'NP_387464.1'
p6478
sS'402406'
p6479
S'YP_001293852.1'
p6480
sS'28026'
p6481
S'NP_613078.1'
p6482
sS'245685'
p6483
S'YP_001285576.1'
p6484
sS'161736'
p6485
S'NP_690834.1'
p6486
sS'7602'
p6487
S'YP_187587.1'
p6488
sS'77856'
p6489
S'NP_047277.1'
p6490
sS'442736'
p6491
S'YP_001382382.1'
p6492
sS'315953'
p6493
S'YP_319903.1'
p6494
sS'315730'
p6495
S'ZP_01187932.1'
p6496
sS'336959'
p6497
S'NP_620618.1'
p6498
sS'37108'
p6499
S'YP_001294940.1'
p6500
sS'143325'
p6501
S'NP_443332.1'
p6502
sS'318595'
p6503
S'YP_338012.1'
p6504
sS'143327'
p6505
S'NP_443345.1'
p6506
sS'143326'
p6507
S'NP_443514.1'
p6508
sS'143321'
p6509
S'NP_443501.1'
p6510
sS'143323'
p6511
S'NP_443293.1'
p6512
sS'143322'
p6513
S'NP_443280.1'
p6514
sS'79450'
p6515
S'NC_003637.1'
p6516
sS'297245'
p6517
S'YP_128257.1'
p6518
sS'143328'
p6519
S'NP_443358.1'
p6520
sS'51511'
p6521
S'NP_786963.1'
p6522
sS'330728'
p6523
S'YP_626419.1'
p6524
sS'40537'
p6525
S'NP_694435.1'
p6526
sS'263820'
p6527
S'YP_024313.1'
p6528
sS'299468'
p6529
S'YP_398834.1'
p6530
sS'190811'
p6531
S'NP_612559.1'
p6532
sS'382685'
p6533
S'YP_762616.1'
p6534
sS'109764'
p6535
S'NP_847989.1'
p6536
sS'5762'
p6537
S'NP_066543.1'
p6538
sS'40538'
p6539
S'NP_043422.1'
p6540
sS'109760'
p6541
S'NP_150642.1'
p6542
sS'398720'
p6543
S'ZP_01062569.1'
p6544
sS'374463'
p6545
S'YP_589074.1'
p6546
sS'145481'
p6547
S'NP_904248.1'
p6548
sS'193122'
p6549
S'NC_009522.1'
p6550
sS'193120'
p6551
S'NP_620848.1'
p6552
sS'193121'
p6553
S'NP_620027.1'
p6554
sS'92129'
p6555
S'NP_054697.1'
p6556
sS'178880'
p6557
S'NP_740256.1'
p6558
sS'262728'
p6559
S'ZP_00349691.1'
p6560
sS'45370'
p6561
S'AP_000260.1'
p6562
sS'7739'
p6563
S'NP_007769.1'
p6564
sS'1255'
p6565
S'NP_037579.1'
p6566
sS'395993'
p6567
S'YP_973153.1'
p6568
sS'319426'
p6569
S'YP_220536.1'
p6570
sS'395991'
p6571
S'YP_973140.1'
p6572
sS'170193'
p6573
S'NP_795741.1'
p6574
sS'228346'
p6575
S'NP_739710.1'
p6576
sS'170199'
p6577
S'NP_795806.1'
p6578
sS'447456'
p6579
S'NZ_ABBX01000129.1'
p6580
sS'103695'
p6581
S'YP_220666.1'
p6582
sS'126431'
p6583
S'YP_778555.1'
p6584
sS'35612'
p6585
S'NP_786896.1'
p6586
sS'35345'
p6587
S'NP_112719.1'
p6588
sS'393119'
p6589
S'NZ_AARL01001494.1'
p6590
sS'35343'
p6591
S'NP_490644.1'
p6592
sS'35340'
p6593
S'NP_042346.1'
p6594
sS'28800'
p6595
S'YP_913314.1'
p6596
sS'241630'
p6597
S'NP_958055.1'
p6598
sS'88682'
p6599
S'YP_636944.1'
p6600
sS'55096'
p6601
S'YP_516233.1'
p6602
sS'303'
p6603
S'YP_709360.1'
p6604
sS'103699'
p6605
S'YP_001165437.1'
p6606
sS'305'
p6607
S'NP_052318.1'
p6608
sS'11212'
p6609
S'NP_599019.1'
p6610
sS'381666'
p6611
S'YP_842091.1'
p6612
sS'11216'
p6613
S'NP_599251.1'
p6614
sS'4113'
p6615
S'YP_635703.1'
p6616
sS'349344'
p6617
S'YP_001382410.1'
p6618
sS'11215'
p6619
S'NP_037646.1'
p6620
sS'115987'
p6621
S'NP_932607.1'
p6622
sS'256548'
p6623
S'YP_024971.1'
p6624
sS'291589'
p6625
S'YP_164627.1'
p6626
sS'8355'
p6627
S'NR_003556.1'
p6628
sS'130556'
p6629
S'NP_203413.1'
p6630
sS'181429'
p6631
S'NP_739866.1'
p6632
sS'320849'
p6633
S'YP_240814.1'
p6634
sS'320848'
p6635
S'YP_240740.1'
p6636
sS'221036'
p6637
S'NP_835276.1'
p6638
sS'35297'
p6639
S'NP_599249.1'
p6640
sS'393595'
p6641
S'YP_694475.1'
p6642
sS'35291'
p6643
S'NP_945127.1'
p6644
sS'35292'
p6645
S'YP_024314.1'
p6646
sS'310697'
p6647
S'YP_214926.1'
p6648
sS'181418'
p6649
S'NP_739762.1'
p6650
sS'143339'
p6651
S'NP_443644.1'
p6652
sS'51354'
p6653
S'NP_734456.1'
p6654
sS'320845'
p6655
S'YP_240528.1'
p6656
sS'174156'
p6657
S'NP_542481.1'
p6658
sS'39090'
p6659
S'YP_778889.1'
p6660
sS'320846'
p6661
S'YP_240603.1'
p6662
sS'50458'
p6663
S'YP_001123351.1'
p6664
sS'7425'
p6665
S'XR_036843.1'
p6666
sS'444178'
p6667
S'YP_001259979.1'
p6668
sS'340184'
p6669
S'ZP_00718265.1'
p6670
sS'194966'
p6671
S'NP_853612.2'
p6672
sS'194965'
p6673
S'NP_859028.1'
p6674
sS'430556'
p6675
S'NZ_AAYD01000019.1'
p6676
sS'103216'
p6677
S'NP_878242.1'
p6678
sS'406561'
p6679
S'ZP_01831719.1'
p6680
sS'107992'
p6681
S'YP_097023.1'
p6682
sS'377463'
p6683
S'YP_851013.1'
p6684
sS'377462'
p6685
S'YP_851012.1'
p6686
sS'55540'
p6687
S'YP_448828.1'
p6688
sS'45219'
p6689
S'NP_899221.1'
p6690
sS'55544'
p6691
S'YP_581748.1'
p6692
sS'302098'
p6693
S'YP_220783.1'
p6694
sS'349968'
p6695
S'ZP_00823789.1'
p6696
sS'404974'
p6697
S'NZ_AATY01000154.1'
p6698
sS'223259'
p6699
S'NP_443745.1'
p6700
sS'12639'
p6701
S'NP_039829.1'
p6702
sS'192025'
p6703
S'NC_003681.1'
p6704
sS'192026'
p6705
S'NC_003682.1'
p6706
sS'192027'
p6707
S'NC_003683.1'
p6708
sS'223252'
p6709
S'NP_803142.1'
p6710
sS'192021'
p6711
S'NP_620554.1'
p6712
sS'149978'
p6713
S'NP_818825.1'
p6714
sS'185782'
p6715
S'NP_938071.1'
p6716
sS'10857'
p6717
S'NP_044323.1'
p6718
sS'78898'
p6719
S'YP_203369.1'
p6720
sS'10855'
p6721
S'NP_598342.1'
p6722
sS'10854'
p6723
S'NP_040348.1'
p6724
sS'93504'
p6725
S'NP_563608.1'
p6726
sS'284022'
p6727
S'YP_626646.1'
p6728
sS'273123'
p6729
S'YP_072451.1'
p6730
sS'263532'
p6731
S'NC_008715.1'
p6732
sS'329886'
p6733
S'YP_418246.1'
p6734
sS'320843'
p6735
S'YP_240379.1'
p6736
sS'120496'
p6737
S'YP_337823.1'
p6738
sS'93059'
p6739
S'ZP_01006873.1'
p6740
sS'344021'
p6741
S'YP_338132.1'
p6742
sS'373410'
p6743
S'YP_655277.1'
p6744
sS'344022'
p6745
S'YP_425028.1'
p6746
sS'180526'
p6747
S'NP_620425.1'
p6748
sS'349747'
p6749
S'YP_001403128.1'
p6750
sS'5787'
p6751
S'NP_046742.1'
p6752
sS'269482'
p6753
S'YP_001121137.1'
p6754
sS'221109'
p6755
S'NP_788261.1'
p6756
sS'196620'
p6757
S'NP_647449.1'
p6758
sS'262098'
p6759
S'YP_961329.1'
p6760
sS'333764'
p6761
S'NP_041812.1'
p6762
sS'222475'
p6763
S'NP_808735.1'
p6764
sS'222474'
p6765
S'NP_808851.1'
p6766
sS'320842'
p6767
S'YP_240305.1'
p6768
sS'75348'
p6769
S'YP_913509.1'
p6770
sS'373415'
p6771
S'YP_656013.1'
p6772
sS'188141'
p6773
S'NP_689395.1'
p6774
sS'4896'
p6775
S'NP_112417.1'
p6776
sS'219744'
p6777
S'NP_786881.1'
p6778
sS'149983'
p6779
S'NP_818877.1'
p6780
sS'351605'
p6781
S'YP_001233148.1'
p6782
sS'333767'
p6783
S'NP_043450.1'
p6784
sS'64283'
p6785
S'YP_950477.1'
p6786
sS'62352'
p6787
S'NP_620292.1'
p6788
sS'12188'
p6789
S'NP_620719.1'
p6790
sS'12187'
p6791
S'NP_620647.1'
p6792
sS'333760'
p6793
S'NP_041332.1'
p6794
sS'12183'
p6795
S'NP_040886.1'
p6796
sS'12182'
p6797
S'NP_619750.1'
p6798
sS'12181'
p6799
S'NP_044334.1'
p6800
sS'12180'
p6801
S'NP_040783.1'
p6802
sS'326442'
p6803
S'YP_342043.1'
p6804
sS'228579'
p6805
S'NP_840041.1'
p6806
sS'350701'
p6807
S'ZP_00988139.1'
p6808
sS'333762'
p6809
S'NP_041787.1'
p6810
sS'350703'
p6811
S'ZP_00976727.1'
p6812
sS'350702'
p6813
S'ZP_00982698.1'
p6814
sS'314262'
p6815
S'ZP_01058834.1'
p6816
sS'214988'
p6817
S'YP_654418.1'
p6818
sS'6116'
p6819
S'NP_009265.1'
p6820
sS'314261'
p6821
S'ZP_01265307.1'
p6822
sS'314266'
p6823
S'ZP_01305395.1'
p6824
sS'314267'
p6825
S'ZP_00964920.1'
p6826
sS'119423'
p6827
S'NP_077030.1'
p6828
sS'12742'
p6829
S'NP_620559.1'
p6830
sS'348449'
p6831
S'YP_656506.1'
p6832
sS'220341'
p6833
S'NP_872583.1'
p6834
sS'220340'
p6835
S'NP_040775.1'
p6836
sS'101699'
p6837
S'YP_448867.1'
p6838
sS'52996'
p6839
S'YP_001036293.1'
p6840
sS'27337'
p6841
S'YP_667836.1'
p6842
sS'420255'
p6843
S'YP_001144449.1'
p6844
sS'157898'
p6845
S'NP_666633.1'
p6846
sS'349966'
p6847
S'ZP_00831706.1'
p6848
sS'10679'
p6849
S'NP_757382.1'
p6850
sS'10678'
p6851
S'YP_006580.1'
p6852
sS'278957'
p6853
S'ZP_02014469.1'
p6854
sS'7937'
p6855
S'NP_110516.1'
p6856
sS'7936'
p6857
S'YP_163828.1'
p6858
sS'7939'
p6859
S'YP_163945.1'
p6860
sS'7938'
p6861
S'YP_164036.1'
p6862
sS'46607'
p6863
S'NP_604473.1'
p6864
sS'9457'
p6865
S'NP_659375.1'
p6866
sS'10677'
p6867
S'NP_602303.1'
p6868
sS'219299'
p6869
S'NP_783159.1'
p6870
sS'134386'
p6871
S'NP_443746.1'
p6872
sS'352882'
p6873
S'YP_459964.1'
p6874
sS'205877'
p6875
S'NP_818301.1'
p6876
sS'349965'
p6877
S'ZP_00835592.1'
p6878
sS'112437'
p6879
S'NP_940831.1'
p6880
sS'357544'
p6881
S'YP_628284.1'
p6882
sS'251221'
p6883
S'NP_927376.1'
p6884
sS'2133'
p6885
S'YP_313604.1'
p6886
sS'42254'
p6887
S'NT_166672.1'
p6888
sS'426430'
p6889
S'YP_001333691.1'
p6890
sS'93830'
p6891
S'YP_138532.1'
p6892
sS'12295'
p6893
S'NP_620684.1'
p6894
sS'12294'
p6895
S'NP_049328.1'
p6896
sS'69042'
p6897
S'ZP_01086714.1'
p6898
sS'11723'
p6899
S'NP_687035.1'
p6900
sS'316983'
p6901
S'YP_319831.1'
p6902
sS'80793'
p6903
S'YP_913288.1'
p6904
sS'204773'
p6905
S'YP_001101694.1'
p6906
sS'85542'
p6907
S'NP_048071.1'
p6908
sS'290339'
p6909
S'YP_001440587.1'
p6910
sS'84099'
p6911
S'YP_001425523.1'
p6912
sS'290333'
p6913
S'YP_308868.1'
p6914
sS'187978'
p6915
S'NP_818992.1'
p6916
sS'320844'
p6917
S'YP_240451.1'
p6918
sS'331975'
p6919
S'YP_386496.1'
p6920
sS'393116'
p6921
S'NZ_AARI01001415.1'
p6922
sS'419435'
p6923
S'YP_001029445.1'
p6924
sS'107571'
p6925
S'NP_624323.2'
p6926
sS'190064'
p6927
S'NP_597831.1'
p6928
sS'278197'
p6929
S'YP_805308.1'
p6930
sS'46917'
p6931
S'NP_871737.1'
p6932
sS'190061'
p6933
S'NP_595044.1'
p6934
sS'90751'
p6935
S'YP_913561.1'
p6936
sS'387093'
p6937
S'YP_001359756.1'
p6938
sS'90753'
p6939
S'YP_913548.1'
p6940
sS'377609'
p6941
S'YP_740298.1'
p6942
sS'12360'
p6943
S'NP_803306.1'
p6944
sS'90758'
p6945
S'YP_161194.1'
p6946
sS'314283'
p6947
S'ZP_01116804.1'
p6948
sS'401614'
p6949
S'YP_899384.1'
p6950
sS'143921'
p6951
S'NP_689434.1'
p6952
sS'12165'
p6953
S'YP_001086457.1'
p6954
sS'185959'
p6955
S'NP_620633.1'
p6956
sS'12167'
p6957
S'NP_955549.1'
p6958
sS'12166'
p6959
S'NP_958176.1'
p6960
sS'12161'
p6961
S'NP_733949.1'
p6962
sS'167555'
p6963
S'YP_001016021.1'
p6964
sS'12162'
p6965
S'NP_757348.1'
p6966
sS'439846'
p6967
S'NZ_ABAM01000143.1'
p6968
sS'439847'
p6969
S'NZ_ABAN01000182.1'
p6970
sS'42892'
p6971
S'NP_203739.1'
p6972
sS'12169'
p6973
S'YP_277434.1'
p6974
sS'4580'
p6975
S'YP_740380.1'
p6976
sS'42897'
p6977
S'NC_002773.1'
p6978
sS'70448'
p6979
S'YP_717307.1'
p6980
sS'10298'
p6981
S'NP_044676.1'
p6982
sS'350688'
p6983
S'ZP_01362912.1'
p6984
sS'59729'
p6985
S'YP_514831.1'
p6986
sS'1140'
p6987
S'YP_654184.1'
p6988
sS'299317'
p6989
S'YP_514577.1'
p6990
sS'262071'
p6991
S'YP_001110800.1'
p6992
sS'11988'
p6993
S'NP_620723.1'
p6994
sS'10455'
p6995
S'YP_001036435.1'
p6996
sS'10454'
p6997
S'NP_037899.1'
p6998
sS'11983'
p6999
S'NP_786950.1'
p7000
sS'11986'
p7001
S'YP_009033.1'
p7002
sS'11987'
p7003
S'NP_041231.1'
p7004
sS'246196'
p7005
S'YP_891139.1'
p7006
sS'246197'
p7007
S'YP_635617.1'
p7008
sS'349106'
p7009
S'YP_001281280.1'
p7010
sS'164929'
p7011
S'NT_166783.1'
p7012
sS'3555'
p7013
S'YP_626380.1'
p7014
sS'337828'
p7015
S'YP_277522.1'
p7016
sS'83839'
p7017
S'NP_050018.1'
p7018
sS'268748'
p7019
S'YP_214231.1'
p7020
sS'441164'
p7021
S'NZ_ABBH01000803.1'
p7022
sS'36667'
p7023
S'YP_026129.1'
p7024
sS'142661'
p7025
S'NP_573443.1'
p7026
sS'268746'
p7027
S'YP_214560.1'
p7028
sS'208518'
p7029
S'YP_025922.1'
p7030
sS'33748'
p7031
S'YP_567050.1'
p7032
sS'300268'
p7033
S'YP_410701.1'
p7034
sS'210827'
p7035
S'YP_392467.1'
p7036
sS'46922'
p7037
S'AP_000160.1'
p7038
sS'324900'
p7039
S'NP_944776.1'
p7040
sS'10589'
p7041
S'NP_040295.1'
p7042
sS'37040'
p7043
S'YP_238228.1'
p7044
sS'133704'
p7045
S'YP_077192.1'
p7046
sS'11855'
p7047
S'NP_954565.2'
p7048
sS'11856'
p7049
S'NP_955544.1'
p7050
sS'33747'
p7051
S'NP_049561.1'
p7052
sS'82300'
p7053
S'YP_068409.1'
p7054
sS'37919'
p7055
S'YP_227551.1'
p7056
sS'138951'
p7057
S'NP_942569.1'
p7058
sS'138953'
p7059
S'NP_740478.2'
p7060
sS'243232'
p7061
S'YP_054429.1'
p7062
sS'243233'
p7063
S'YP_338557.1'
p7064
sS'715'
p7065
S'YP_245434.1'
p7066
sS'714'
p7067
S'NP_067583.1'
p7068
sS'93892'
p7069
S'NP_058514.1'
p7070
sS'45455'
p7071
S'YP_068017.1'
p7072
sS'394503'
p7073
S'ZP_01577051.1'
p7074
sS'334596'
p7075
S'YP_001019178.1'
p7076
sS'339724'
p7077
S'XP_001545052.1'
p7078
sS'48742'
p7079
S'NP_944697.1'
p7080
sS'59655'
p7081
S'YP_054517.1'
p7082
sS'255131'
p7083
S'NP_945113.1'
p7084
sS'134606'
p7085
S'NP_066381.1'
p7086
sS'48744'
p7087
S'NP_944684.1'
p7088
sS'54289'
p7089
S'YP_272125.1'
p7090
sS'40830'
p7091
S'YP_913418.1'
p7092
sS'320847'
p7093
S'YP_240668.1'
p7094
sS'40834'
p7095
S'YP_783872.1'
p7096
sS'37621'
p7097
S'YP_851005.1'
p7098
sS'443226'
p7099
S'NZ_ABAI01001361.1'
p7100
sS'387665'
p7101
S'YP_001023674.1'
p7102
sS'134600'
p7103
S'NP_149460.1'
p7104
sS'155906'
p7105
S'NP_777519.1'
p7106
sS'369584'
p7107
S'YP_717913.1'
p7108
sS'37629'
p7109
S'YP_001008364.1'
p7110
sS'12151'
p7111
S'NP_040969.1'
p7112
sS'205913'
p7113
S'ZP_00346178.1'
p7114
sS'264485'
p7115
S'YP_980203.1'
p7116
sS'237561'
p7117
S'XP_951452.1'
p7118
sS'273119'
p7119
S'NP_570895.1'
p7120
sS'255217'
p7121
S'YP_537144.1'
p7122
sS'346249'
p7123
S'YP_001425569.1'
p7124
sS'216371'
p7125
S'YP_052857.1'
p7126
sS'393598'
p7127
S'YP_001285673.1'
p7128
sS'1661'
p7129
S'NP_940749.1'
p7130
sS'233067'
p7131
S'NP_954861.1'
p7132
sS'591'
p7133
S'NP_203140.1'
p7134
sS'179945'
p7135
S'NP_511241.1'
p7136
sS'85963'
p7137
S'NP_224213.1'
p7138
sS'592'
p7139
S'NP_863192.1'
p7140
sS'59380'
p7141
S'NP_620502.1'
p7142
sS'280588'
p7143
S'YP_054469.1'
p7144
sS'8235'
p7145
S'NP_955717.1'
p7146
sS'129788'
p7147
S'NP_543048.2'
p7148
sS'156586'
p7149
S'ZP_01203397.1'
p7150
sS'76114'
p7151
S'YP_195747.1'
p7152
sS'8238'
p7153
S'YP_784190.1'
p7154
sS'31271'
p7155
S'XP_746295.1'
p7156
sS'291590'
p7157
S'YP_224227.1'
p7158
sS'244310'
p7159
S'YP_022514.1'
p7160
sS'59479'
p7161
S'NT_165310.2'
p7162
sS'3144'
p7163
S'YP_001315142.1'
p7164
sS'273057'
p7165
S'NP_344553.1'
p7166
sS'451754'
p7167
S'NZ_ABDV01000098.1'
p7168
sS'451755'
p7169
S'NZ_ABDW01000101.1'
p7170
sS'451756'
p7171
S'YP_473423.1'
p7172
sS'40631'
p7173
S'NP_046955.1'
p7174
sS'365523'
p7175
S'YP_459918.1'
p7176
sS'54133'
p7177
S'YP_659511.1'
p7178
sS'303317'
p7179
S'YP_873924.1'
p7180
sS'291261'
p7181
S'YP_097153.1'
p7182
sS'162630'
p7183
S'NP_127489.1'
p7184
sS'28035'
p7185
S'NP_054018.1'
p7186
sS'91753'
p7187
S'NP_620105.1'
p7188
sS'221054'
p7189
S'NP_775488.1'
p7190
sS'207559'
p7191
S'YP_390271.1'
p7192
sS'62046'
p7193
S'YP_980242.1'
p7194
sS'37133'
p7195
S'NP_942586.1'
p7196
sS'349563'
p7197
S'YP_529829.1'
p7198
sS'37131'
p7199
S'NP_945030.1'
p7200
sS'1408'
p7201
S'NP_862051.1'
p7202
sS'436115'
p7203
S'NZ_AAZP01000272.1'
p7204
sS'331117'
p7205
S'XP_001267677.1'
p7206
sS'1402'
p7207
S'YP_227353.1'
p7208
sS'324685'
p7209
S'YP_271921.1'
p7210
sS'37138'
p7211
S'NP_899651.1'
p7212
sS'68887'
p7213
S'NP_817122.1'
p7214
sS'445984'
p7215
S'NZ_ABCW01000063.1'
p7216
sS'1405'
p7217
S'YP_209651.1'
p7218
sS'1404'
p7219
S'NP_799505.1'
p7220
sS'71854'
p7221
S'NP_789860.1'
p7222
sS'143313'
p7223
S'NP_443241.1'
p7224
sS'143314'
p7225
S'NP_443254.1'
p7226
sS'143315'
p7227
S'NP_443267.1'
p7228
sS'442'
p7229
S'NP_759009.1'
p7230
sS'34116'
p7231
S'YP_001382220.1'
p7232
sS'129875'
p7233
S'NP_597784.1'
p7234
sS'325240'
p7235
S'YP_001052713.1'
p7236
sS'441152'
p7237
S'NZ_ABBR01001030.1'
p7238
sS'379329'
p7239
S'YP_794128.1'
p7240
sS'40521'
p7241
S'NP_463533.1'
p7242
sS'8127'
p7243
S'YP_272027.1'
p7244
sS'247639'
p7245
S'ZP_01627971.1'
p7246
sS'6938'
p7247
S'NP_722574.1'
p7248
sS'180503'
p7249
S'NP_536624.1'
p7250
sS'310750'
p7251
S'YP_241110.1'
p7252
sS'248361'
p7253
S'YP_762323.1'
p7254
sS'318586'
p7255
S'ZP_00633269.1'
p7256
sS'296591'
p7257
S'YP_552318.1'
p7258
sS'357288'
p7259
S'YP_913743.1'
p7260
sS'288000'
p7261
S'YP_001243605.1'
p7262
sS'29144'
p7263
S'NP_818812.1'
p7264
sS'111874'
p7265
S'YP_025197.1'
p7266
sS'1245'
p7267
S'YP_271728.1'
p7268
sS'136089'
p7269
S'NP_945313.1'
p7270
sS'1247'
p7271
S'YP_214987.1'
p7272
sS'50743'
p7273
S'ZP_01892058.1'
p7274
sS'648'
p7275
S'YP_067902.1'
p7276
sS'103442'
p7277
S'NP_620563.1'
p7278
sS'50294'
p7279
S'YP_001285931.1'
p7280
sS'106966'
p7281
S'NP_758540.1'
p7282
sS'28321'
p7283
S'NP_597689.1'
p7284
sS'393128'
p7285
S'ZP_01934151.1'
p7286
sS'373154'
p7287
S'ZP_01450912.1'
p7288
sS'373153'
p7289
S'YP_817448.1'
p7290
sS'121402'
p7291
S'NP_991027.1'
p7292
sS'210016'
p7293
S'NP_874378.1'
p7294
sS'393120'
p7295
S'NZ_AARM01000406.1'
p7296
sS'393121'
p7297
S'NZ_AARN02000046.1'
p7298
sS'393122'
p7299
S'NZ_AARO01000327.1'
p7300
sS'228405'
p7301
S'YP_762239.1'
p7302
sS'393124'
p7303
S'ZP_01931587.1'
p7304
sS'213034'
p7305
S'YP_325662.1'
p7306
sS'228400'
p7307
S'ZP_00348224.1'
p7308
sS'76841'
p7309
S'YP_184742.1'
p7310
sS'34758'
p7311
S'YP_054606.1'
p7312
sS'8348'
p7313
S'YP_001122784.1'
p7314
sS'360397'
p7315
S'YP_717906.1'
p7316
sS'89055'
p7317
S'YP_054543.1'
p7318
sS'11228'
p7319
S'YP_138510.1'
p7320
sS'348780'
p7321
S'YP_331411.1'
p7322
sS'111470'
p7323
S'NP_037581.1'
p7324
sS'28350'
p7325
S'NP_632007.1'
p7326
sS'115991'
p7327
S'YP_239268.1'
p7328
sS'8346'
p7329
S'YP_192926.1'
p7330
sS'8345'
p7331
S'YP_138265.1'
p7332
sS'410826'
p7333
S'YP_899470.1'
p7334
sS'34301'
p7335
S'YP_053221.1'
p7336
sS'165432'
p7337
S'YP_512367.1'
p7338
sS'56879'
p7339
S'NP_734080.1'
p7340
sS'181425'
p7341
S'NP_739788.1'
p7342
sS'221029'
p7343
S'YP_006420.1'
p7344
sS'446529'
p7345
S'YP_001294837.1'
p7346
sS'181422'
p7347
S'NP_739775.2'
p7348
sS'425009'
p7349
S'YP_001109580.1'
p7350
sS'398577'
p7351
S'ZP_01559690.1'
p7352
sS'145475'
p7353
S'YP_635940.1'
p7354
sS'259901'
p7355
S'NP_958670.1'
p7356
sS'395349'
p7357
S'YP_699994.1'
p7358
sS'28142'
p7359
S'NP_045384.1'
p7360
sS'546'
p7361
S'NP_775064.1'
p7362
sS'228578'
p7363
S'NP_740759.1'
p7364
sS'149980'
p7365
S'NP_818838.1'
p7366
sS'393050'
p7367
S'YP_001165468.1'
p7368
sS'149986'
p7369
S'NP_818929.1'
p7370
sS'398578'
p7371
S'ZP_01583083.1'
p7372
sS'398579'
p7373
S'ZP_01605768.1'
p7374
sS'426368'
p7375
S'YP_001331012.1'
p7376
sS'73431'
p7377
S'NP_008392.1'
p7378
sS'373411'
p7379
S'YP_655468.1'
p7380
sS'447601'
p7381
S'YP_001285937.1'
p7382
sS'360095'
p7383
S'YP_989622.1'
p7384
sS'331272'
p7385
S'YP_840566.1'
p7386
sS'6610'
p7387
S'YP_514805.1'
p7388
sS'6617'
p7389
S'NP_062845.1'
p7390
sS'12627'
p7391
S'NP_619521.1'
p7392
sS'354242'
p7393
S'YP_999999.1'
p7394
sS'77152'
p7395
S'NP_052248.1'
p7396
sS'318161'
p7397
S'YP_564774.1'
p7398
sS'391613'
p7399
S'ZP_01881818.1'
p7400
sS'309390'
p7401
S'YP_459906.1'
p7402
sS'548'
p7403
S'NP_149415.1'
p7404
sS'318167'
p7405
S'YP_752730.1'
p7406
sS'269277'
p7407
S'YP_006445.1'
p7408
sS'10840'
p7409
S'NP_899663.1'
p7410
sS'323097'
p7411
S'YP_579166.1'
p7412
sS'10843'
p7413
S'NP_040680.1'
p7414
sS'10844'
p7415
S'NP_040752.1'
p7416
sS'432261'
p7417
S'YP_001109584.1'
p7418
sS'273116'
p7419
S'NP_112018.1'
p7420
sS'10847'
p7421
S'NP_040713.1'
p7422
sS'10848'
p7423
S'NP_043951.1'
p7424
sS'10849'
p7425
S'NP_039599.1'
p7426
sS'292347'
p7427
S'YP_001218729.1'
p7428
sS'93062'
p7429
S'YP_187526.1'
p7430
sS'93061'
p7431
S'YP_501500.1'
p7432
sS'309807'
p7433
S'YP_446991.1'
p7434
sS'270342'
p7435
S'YP_006997.1'
p7436
sS'127441'
p7437
S'NC_002738.1'
p7438
sS'110457'
p7439
S'NP_072072.1'
p7440
sS'5791'
p7441
S'NP_062865.1'
p7442
sS'208526'
p7443
S'YP_272071.1'
p7444
sS'96345'
p7445
S'NP_851858.1'
p7446
sS'41882'
p7447
S'YP_665722.1'
p7448
sS'240865'
p7449
S'NP_991337.1'
p7450
sS'340657'
p7451
S'YP_740292.1'
p7452
sS'277944'
p7453
S'YP_003771.1'
p7454
sS'96561'
p7455
S'ZP_01675314.1'
p7456
sS'447603'
p7457
S'YP_001285939.1'
p7458
sS'417397'
p7459
S'ZP_01984191.1'
p7460
sS'3634'
p7461
S'YP_913249.1'
p7462
sS'3635'
p7463
S'YP_538999.1'
p7464
sS'222441'
p7465
S'NP_803552.1'
p7466
sS'391612'
p7467
S'ZP_01732688.1'
p7468
sS'260827'
p7469
S'YP_053042.1'
p7470
sS'12198'
p7471
S'NP_734172.1'
p7472
sS'12199'
p7473
S'NP_734388.1'
p7474
sS'47700'
p7475
S'NP_443618.1'
p7476
sS'331111'
p7477
S'ZP_00704297.1'
p7478
sS'320850'
p7479
S'YP_240891.1'
p7480
sS'143332'
p7481
S'NP_443553.1'
p7482
sS'12194'
p7483
S'YP_263307.1'
p7484
sS'12196'
p7485
S'NP_734122.1'
p7486
sS'12197'
p7487
S'NP_734182.1'
p7488
sS'314278'
p7489
S'ZP_01128975.1'
p7490
sS'373414'
p7491
S'YP_655761.1'
p7492
sS'143330'
p7493
S'NP_443371.4'
p7494
sS'314271'
p7495
S'ZP_01015965.1'
p7496
sS'262771'
p7497
S'YP_220640.1'
p7498
sS'562'
p7499
S'YP_891148.1'
p7500
sS'283942'
p7501
S'YP_157021.1'
p7502
sS'314277'
p7503
S'ZP_01078882.1'
p7504
sS'314276'
p7505
S'ZP_01044420.1'
p7506
sS'100755'
p7507
S'NP_808845.1'
p7508
sS'140595'
p7509
S'YP_913366.1'
p7510
sS'28907'
p7511
S'YP_025522.1'
p7512
sS'439491'
p7513
S'YP_001285729.1'
p7514
sS'323098'
p7515
S'YP_319742.1'
p7516
sS'85106'
p7517
S'NP_049542.1'
p7518
sS'404380'
p7519
S'ZP_01777259.1'
p7520
sS'46618'
p7521
S'NP_620660.1'
p7522
sS'9447'
p7523
S'NP_659300.1'
p7524
sS'292639'
p7525
S'YP_164379.1'
p7526
sS'125788'
p7527
S'NP_955627.1'
p7528
sS'46342'
p7529
S'NC_003612.1'
p7530
sS'79917'
p7531
S'NP_734232.1'
p7532
sS'12285'
p7533
S'YP_227598.1'
p7534
sS'3708'
p7535
S'YP_717175.1'
p7536
sS'12287'
p7537
S'NP_689446.1'
p7538
sS'12280'
p7539
S'NP_734007.2'
p7540
sS'417398'
p7541
S'ZP_01980414.1'
p7542
sS'12282'
p7543
S'YP_053928.1'
p7544
sS'176106'
p7545
S'NP_445737.1'
p7546
sS'3702'
p7547
S'NP_975008.1'
p7548
sS'311229'
p7549
S'YP_392479.1'
p7550
sS'4465'
p7551
S'YP_319826.1'
p7552
sS'12288'
p7553
S'NP_937960.1'
p7554
sS'321332'
p7555
S'YP_529512.1'
p7556
sS'79918'
p7557
S'NP_740767.1'
p7558
sS'167161'
p7559
S'NP_733985.1'
p7560
sS'404404'
p7561
S'YP_001430026.1'
p7562
sS'4916'
p7563
S'YP_184729.1'
p7564
sS'244589'
p7565
S'NP_597839.1'
p7566
sS'159122'
p7567
S'NP_758893.1'
p7568
sS'46761'
p7569
S'YP_097140.1'
p7570
sS'436308'
p7571
S'ZP_02024803.1'
p7572
sS'101570'
p7573
S'YP_224217.1'
p7574
sS'300740'
p7575
S'YP_224291.1'
p7576
sS'160844'
p7577
S'YP_699988.1'
p7578
sS'362976'
p7579
S'YP_659433.1'
p7580
sS'246299'
p7581
S'YP_214978.1'
p7582
sS'9823'
p7583
S'NR_002170.3'
p7584
sS'293653'
p7585
S'YP_283229.1'
p7586
sS'272633'
p7587
S'NP_758423.1'
p7588
sS'420247'
p7589
S'YP_001274368.1'
p7590
sS'314275'
p7591
S'ZP_01112566.1'
p7592
sS'45237'
p7593
S'NP_619670.2'
p7594
sS'90322'
p7595
S'YP_512228.1'
p7596
sS'237631'
p7597
S'XP_762669.1'
p7598
sS'36870'
p7599
S'YP_054435.1'
p7600
sS'2655'
p7601
S'NP_858123.1'
p7602
sS'41261'
p7603
S'NP_007522.1'
p7604
sS'8022'
p7605
S'NP_008302.1'
p7606
sS'3415'
p7607
S'YP_740266.1'
p7608
sS'172026'
p7609
S'NP_937979.1'
p7610
sS'198597'
p7611
S'NP_660176.1'
p7612
sS'185431'
p7613
S'XP_951757.1'
p7614
sS'328671'
p7615
S'NP_569150.1'
p7616
sS'139'
p7617
S'YP_783883.1'
p7618
sS'198599'
p7619
S'NP_660177.1'
p7620
sS'326811'
p7621
S'YP_001210304.1'
p7622
sS'379508'
p7623
S'XP_001528855.1'
p7624
sS'230871'
p7625
S'NP_852026.1'
p7626
sS'85154'
p7627
S'NP_695135.1'
p7628
sS'390874'
p7629
S'YP_163737.1'
p7630
sS'411462'
p7631
S'ZP_01996997.1'
p7632
sS'198608'
p7633
S'NC_004048.1'
p7634
sS'27779'
p7635
S'NP_008276.1'
p7636
sS'349307'
p7637
S'YP_844139.1'
p7638
sS'10665'
p7639
S'NP_813811.1'
p7640
sS'84159'
p7641
S'YP_453404.1'
p7642
sS'12175'
p7643
S'NP_040553.1'
p7644
sS'167019'
p7645
S'YP_238481.1'
p7646
sS'10661'
p7647
S'NP_049912.1'
p7648
sS'419610'
p7649
S'ZP_02022174.1'
p7650
sS'418443'
p7651
S'YP_001039684.1'
p7652
sS'120168'
p7653
S'NP_579977.1'
p7654
sS'265072'
p7655
S'YP_546865.1'
p7656
sS'9685'
p7657
S'NT_166602.1'
p7658
sS'167542'
p7659
S'YP_001012221.1'
p7660
sS'12178'
p7661
S'NP_054029.1'
p7662
sS'12179'
p7663
S'NP_040992.1'
p7664
sS'134758'
p7665
S'YP_097062.1'
p7666
sS'453454'
p7667
S'YP_001427384.1'
p7668
sS'71674'
p7669
S'NP_443436.1'
p7670
sS'43780'
p7671
S'YP_659459.1'
p7672
sS'363225'
p7673
S'YP_626714.1'
p7674
sS'118850'
p7675
S'YP_980177.1'
p7676
sS'36989'
p7677
S'YP_001256899.1'
p7678
sS'302070'
p7679
S'NC_006957.1'
p7680
sS'10449'
p7681
S'NP_047800.1'
p7682
sS'402882'
p7683
S'YP_001368559.1'
p7684
sS'411481'
p7685
S'ZP_02030033.1'
p7686
sS'10116'
p7687
S'YP_665641.1'
p7688
sS'395095'
p7689
S'NZ_AASN01000065.1'
p7690
sS'46839'
p7691
S'NP_690901.1'
p7692
sS'3562'
p7693
S'NP_077750.1'
p7694
sS'70796'
p7695
S'NP_705605.1'
p7696
sS'84335'
p7697
S'YP_026039.1'
p7698
sS'71271'
p7699
S'YP_636363.1'
p7700
sS'436113'
p7701
S'NZ_AAZK01000004.1'
p7702
sS'9033'
p7703
S'YP_272123.1'
p7704
sS'157539'
p7705
S'NP_112724.1'
p7706
sS'98819'
p7707
S'YP_001256951.1'
p7708
sS'145856'
p7709
S'YP_239361.1'
p7710
sS'106106'
p7711
S'NP_871773.1'
p7712
sS'65948'
p7713
S'YP_001123879.1'
p7714
sS'349163'
p7715
S'YP_001236211.1'
p7716
sS'349161'
p7717
S'YP_001114653.1'
p7718
sS'221867'
p7719
S'YP_220614.1'
p7720
sS'41460'
p7721
S'YP_022761.1'
p7722
sS'321314'
p7723
S'YP_219432.1'
p7724
sS'48193'
p7725
S'NP_443527.1'
p7726
sS'5334'
p7727
S'NP_150132.1'
p7728
sS'2903'
p7729
S'YP_277427.1'
p7730
sS'138947'
p7731
S'NP_740489.1'
p7732
sS'6850'
p7733
S'NP_150614.1'
p7734
sS'86797'
p7735
S'YP_001434539.1'
p7736
sS'138949'
p7737
S'NP_740547.1'
p7738
sS'138948'
p7739
S'NP_740536.1'
p7740
sS'223987'
p7741
S'YP_145517.1'
p7742
sS'291816'
p7743
S'YP_913795.1'
p7744
sS'11886'
p7745
S'NP_955616.1'
p7746
sS'11885'
p7747
S'NP_955606.1'
p7748
sS'11884'
p7749
S'YP_628286.1'
p7750
sS'196600'
p7751
S'NP_937753.1'
p7752
sS'389168'
p7753
S'YP_001351688.1'
p7754
sS'421885'
p7755
S'YP_001031197.1'
p7756
sS'437444'
p7757
S'YP_001210361.1'
p7758
sS'155919'
p7759
S'ZP_00653065.1'
p7760
sS'338138'
p7761
S'YP_512787.1'
p7762
sS'347325'
p7763
S'YP_001293459.1'
p7764
sS'347324'
p7765
S'YP_001293407.1'
p7766
sS'29339'
p7767
S'NP_052241.1'
p7768
sS'57847'
p7769
S'NP_740139.1'
p7770
sS'186152'
p7771
S'NP_803355.1'
p7772
sS'8805'
p7773
S'YP_006421.1'
p7774
sS'143340'
p7775
S'NP_443670.1'
p7776
sS'8801'
p7777
S'NP_115453.1'
p7778
sS'313590'
p7779
S'ZP_01051620.1'
p7780
sS'318594'
p7781
S'YP_337981.1'
p7782
sS'158898'
p7783
S'NP_954845.1'
p7784
sS'313595'
p7785
S'ZP_01258225.1'
p7786
sS'313594'
p7787
S'ZP_01119361.1'
p7788
sS'112509'
p7789
S'YP_874713.1'
p7790
sS'313596'
p7791
S'ZP_01122589.1'
p7792
sS'434249'
p7793
S'YP_001129531.1'
p7794
sS'585'
p7795
S'NP_640261.1'
p7796
sS'335283'
p7797
S'YP_748701.1'
p7798
sS'264729'
p7799
S'YP_024726.1'
p7800
sS'8204'
p7801
S'YP_001434565.1'
p7802
sS'394104'
p7803
S'NZ_AASF01002170.1'
p7804
sS'47880'
p7805
S'NP_862364.1'
p7806
sS'50817'
p7807
S'NP_951030.1'
p7808
sS'11089'
p7809
S'NP_776009.1'
p7810
sS'2839'
p7811
S'NP_043718.1'
p7812
sS'326941'
p7813
S'YP_874193.1'
p7814
sS'11083'
p7815
S'NP_775524.1'
p7816
sS'11082'
p7817
S'NP_776022.1'
p7818
sS'3159'
p7819
S'NP_050066.1'
p7820
sS'11080'
p7821
S'YP_001008348.1'
p7822
sS'11086'
p7823
S'NP_740730.1'
p7824
sS'11085'
p7825
S'NP_740302.1'
p7826
sS'11084'
p7827
S'NP_775511.1'
p7828
sS'1436'
p7829
S'NP_660269.1'
p7830
sS'62059'
p7831
S'YP_331423.1'
p7832
sS'1432'
p7833
S'NP_705754.1'
p7834
sS'303300'
p7835
S'YP_224083.1'
p7836
sS'1430'
p7837
S'NP_054012.1'
p7838
sS'372461'
p7839
S'YP_802936.1'
p7840
sS'79691'
p7841
S'NP_847996.1'
p7842
sS'368445'
p7843
S'YP_784363.1'
p7844
sS'12286'
p7845
S'NP_689443.1'
p7846
sS'335541'
p7847
S'YP_755234.1'
p7848
sS'72008'
p7849
S'YP_001260498.1'
p7850
sS'399185'
p7851
S'YP_950857.1'
p7852
sS'37128'
p7853
S'NP_620445.1'
p7854
sS'398527'
p7855
S'ZP_01513810.1'
p7856
sS'194526'
p7857
S'YP_089648.1'
p7858
sS'37124'
p7859
S'NP_690589.2'
p7860
sS'40282'
p7861
S'NP_613266.1'
p7862
sS'37126'
p7863
S'NP_619712.1'
p7864
sS'37127'
p7865
S'YP_001285484.1'
p7866
sS'191289'
p7867
S'NP_995579.1'
p7868
sS'79674'
p7869
S'YP_214008.1'
p7870
sS'95668'
p7871
S'NZ_ABER01000008.1'
p7872
sS'267608'
p7873
S'NP_523237.1'
p7874
sS'375063'
p7875
S'ZP_01787807.1'
p7876
sS'143307'
p7877
S'NP_443488.1'
p7878
sS'3218'
p7879
S'YP_539041.1'
p7880
sS'54799'
p7881
S'YP_001312289.1'
p7882
sS'147466'
p7883
S'NP_076855.1'
p7884
sS'147467'
p7885
S'YP_227597.1'
p7886
sS'147464'
p7887
S'NP_076842.1'
p7888
sS'310749'
p7889
S'YP_438201.1'
p7890
sS'279010'
p7891
S'YP_145793.1'
p7892
sS'149982'
p7893
S'NP_818851.1'
p7894
sS'207954'
p7895
S'ZP_01168465.1'
p7896
sS'9870'
p7897
S'YP_448945.1'
p7898
sS'350704'
p7899
S'ZP_00970570.1'
p7900
sS'205908'
p7901
S'NP_149145.1'
p7902
sS'201862'
p7903
S'YP_842359.1'
p7904
sS'267285'
p7905
S'YP_024728.1'
p7906
sS'388413'
p7907
S'ZP_01721589.1'
p7908
sS'38251'
p7909
S'NP_043517.1'
p7910
sS'7719'
p7911
S'YP_025291.1'
p7912
sS'39304'
p7913
S'YP_778837.1'
p7914
sS'186578'
p7915
S'YP_313732.1'
p7916
sS'97271'
p7917
S'YP_654711.1'
p7918
sS'5544'
p7919
S'NP_862333.1'
p7920
sS'396034'
p7921
S'YP_001425632.1'
p7922
sS'1502'
p7923
S'YP_473496.1'
p7924
sS'293957'
p7925
S'YP_238241.1'
p7926
sS'3088'
p7927
S'YP_636017.1'
p7928
sS'186772'
p7929
S'NP_660178.1'
p7930
sS'34587'
p7931
S'NP_008185.1'
p7932
sS'28311'
p7933
S'NP_040902.1'
p7934
sS'34582'
p7935
S'YP_492554.1'
p7936
sS'29158'
p7937
S'YP_214770.1'
p7938
sS'29159'
p7939
S'NP_037555.1'
p7940
sS'262543'
p7941
S'ZP_00540698.1'
p7942
sS'373126'
p7943
S'YP_516225.1'
p7944
sS'169756'
p7945
S'NP_976099.1'
p7946
sS'92651'
p7947
S'YP_161233.1'
p7948
sS'61127'
p7949
S'YP_163919.1'
p7950
sS'384035'
p7951
S'ZP_01315151.1'
p7952
sS'228410'
p7953
S'NP_842562.1'
p7954
sS'73561'
p7955
S'YP_089664.1'
p7956
sS'8574'
p7957
S'YP_313693.1'
p7958
sS'331112'
p7959
S'ZP_00708286.1'
p7960
sS'234267'
p7961
S'YP_829127.1'
p7962
sS'11232'
p7963
S'NP_047207.1'
p7964
sS'11234'
p7965
S'NP_056924.1'
p7966
sS'264202'
p7967
S'YP_515930.1'
p7968
sS'282260'
p7969
S'YP_214796.1'
p7970
sS'282261'
p7971
S'YP_214809.1'
p7972
sS'3885'
p7973
S'YP_001165479.1'
p7974
sS'48981'
p7975
S'NP_690836.1'
p7976
sS'181438'
p7977
S'NP_739931.1'
p7978
sS'406556'
p7979
S'ZP_01819196.1'
p7980
sS'3880'
p7981
S'YP_001381746.1'
p7982
sS'101700'
p7983
S'YP_448893.1'
p7984
sS'181433'
p7985
S'YP_636957.1'
p7986
sS'264462'
p7987
S'NP_982295.1'
p7988
sS'181431'
p7989
S'YP_636931.1'
p7990
sS'406559'
p7991
S'ZP_01826497.1'
p7992
sS'181437'
p7993
S'NP_739918.1'
p7994
sS'181435'
p7995
S'NP_739892.1'
p7996
sS'313612'
p7997
S'ZP_01624786.1'
p7998
sS'310103'
p7999
S'YP_232879.1'
p8000
sS'393048'
p8001
S'YP_001039977.1'
p8002
sS'279303'
p8003
S'YP_024862.1'
p8004
sS'55149'
p8005
S'NP_059579.1'
p8006
sS'393043'
p8007
S'YP_001039960.1'
p8008
sS'203267'
p8009
S'NP_787936.1'
p8010
sS'284812'
p8011
S'NP_596866.1'
p8012
sS'435590'
p8013
S'YP_001301417.1'
p8014
sS'10742'
p8015
S'NP_597907.1'
p8016
sS'393044'
p8017
S'YP_001039969.1'
p8018
sS'167546'
p8019
S'YP_001092130.1'
p8020
sS'89623'
p8021
S'YP_031697.1'
p8022
sS'65632'
p8023
S'YP_637061.1'
p8024
sS'65637'
p8025
S'YP_044790.1'
p8026
sS'56144'
p8027
S'NP_597850.1'
p8028
sS'88773'
p8029
S'NP_052557.1'
p8030
sS'267748'
p8031
S'YP_016330.1'
p8032
sS'257363'
p8033
S'YP_067810.1'
p8034
sS'243275'
p8035
S'NP_973384.1'
p8036
sS'11520'
p8037
S'YP_419283.1'
p8038
sS'445985'
p8039
S'NZ_ABCX01000043.1'
p8040
sS'163822'
p8041
S'YP_636134.1'
p8042
sS'12618'
p8043
S'NP_595041.1'
p8044
sS'61084'
p8045
S'NP_112144.1'
p8046
sS'424944'
p8047
S'YP_001110853.1'
p8048
sS'6625'
p8049
S'YP_514779.1'
p8050
sS'223275'
p8051
S'NP_808890.1'
p8052
sS'273519'
p8053
S'YP_086879.1'
p8054
sS'56549'
p8055
S'NP_008431.1'
p8056
sS'464094'
p8057
S'YP_001429514.1'
p8058
sS'326427'
p8059
S'ZP_01517468.1'
p8060
sS'228897'
p8061
S'NP_957677.1'
p8062
sS'43700'
p8063
S'NP_443657.1'
p8064
sS'321'
p8065
S'NP_964009.1'
p8066
sS'180504'
p8067
S'NP_536427.1'
p8068
sS'393132'
p8069
S'NZ_AARY01000529.1'
p8070
sS'32507'
p8071
S'YP_001054840.1'
p8072
sS'307441'
p8073
S'YP_398808.1'
p8074
sS'329'
p8075
S'NC_001431.1'
p8076
sS'9899'
p8077
S'YP_001260511.1'
p8078
sS'347255'
p8079
S'NZ_AAUY01000001.1'
p8080
sS'52280'
p8081
S'NP_982344.1'
p8082
sS'74546'
p8083
S'YP_654183.1'
p8084
sS'222459'
p8085
S'NP_062872.1'
p8086
sS'59919'
p8087
S'YP_654190.1'
p8088
sS'97081'
p8089
S'YP_089649.1'
p8090
sS'419109'
p8091
S'ZP_01994027.1'
p8092
sS'186809'
p8093
S'NP_671454.1'
p8094
sS'222450'
p8095
S'NP_803409.1'
p8096
sS'9913'
p8097
S'YP_209217.1'
p8098
sS'402881'
p8099
S'YP_001414916.1'
p8100
sS'1254'
p8101
S'NP_857608.1'
p8102
sS'447599'
p8103
S'YP_001285944.1'
p8104
sS'35412'
p8105
S'NP_862731.1'
p8106
sS'358708'
p8107
S'ZP_00923131.1'
p8108
sS'42475'
p8109
S'NP_955625.1'
p8110
sS'9915'
p8111
S'YP_052709.1'
p8112
sS'42478'
p8113
S'NP_042581.1'
p8114
sS'35419'
p8115
S'NC_001621.1'
p8116
sS'262768'
p8117
S'NP_951006.1'
p8118
sS'426588'
p8119
S'YP_001434591.1'
p8120
sS'131226'
p8121
S'NP_062431.1'
p8122
sS'227507'
p8123
S'YP_025099.2'
p8124
sS'370833'
p8125
S'YP_001040018.1'
p8126
sS'335284'
p8127
S'YP_581735.1'
p8128
sS'214486'
p8129
S'NP_976190.1'
p8130
sS'400396'
p8131
S'YP_001427388.1'
p8132
sS'180933'
p8133
S'YP_913587.1'
p8134
sS'400394'
p8135
S'YP_001427386.1'
p8136
sS'400395'
p8137
S'YP_001427387.1'
p8138
sS'51663'
p8139
S'YP_398642.1'
p8140
sS'55564'
p8141
S'YP_635808.1'
p8142
sS'223283'
p8143
S'YP_784364.1'
p8144
sS'261498'
p8145
S'YP_086892.1'
p8146
sS'181408'
p8147
S'NP_739697.1'
p8148
sS'323850'
p8149
S'YP_001095991.1'
p8150
sS'65384'
p8151
S'NC_004961.1'
p8152
sS'106370'
p8153
S'YP_483623.1'
p8154
sS'391774'
p8155
S'YP_968392.1'
p8156
sS'153571'
p8157
S'YP_001294248.1'
p8158
sS'292626'
p8159
S'YP_338237.1'
p8160
sS'9470'
p8161
S'NP_114359.1'
p8162
sS'64471'
p8163
S'YP_732131.1'
p8164
sS'3719'
p8165
S'YP_001123440.1'
p8166
sS'9477'
p8167
S'NP_148750.1'
p8168
sS'240292'
p8169
S'YP_654172.1'
p8170
sS'61971'
p8171
S'NP_943629.1'
p8172
sS'315456'
p8173
S'YP_247528.1'
p8174
sS'116890'
p8175
S'YP_001054906.1'
p8176
sS'61976'
p8177
S'YP_003975.1'
p8178
sS'341167'
p8179
S'YP_459919.1'
p8180
sS'270473'
p8181
S'YP_173335.1'
p8182
sS'440576'
p8183
S'NC_009534.1'
p8184
sS'380703'
p8185
S'YP_858704.1'
p8186
sS'205354'
p8187
S'YP_214835.1'
p8188
sS'59506'
p8189
S'YP_239797.1'
p8190
sS'313603'
p8191
S'ZP_01108403.1'
p8192
sS'148363'
p8193
S'NP_597690.1'
p8194
sS'4907'
p8195
S'NP_038225.1'
p8196
sS'169687'
p8197
S'NP_877488.1'
p8198
sS'2248'
p8199
S'NP_776203.1'
p8200
sS'11709'
p8201
S'NP_663784.1'
p8202
sS'64091'
p8203
S'NP_444249.1'
p8204
sS'2242'
p8205
S'NP_052447.1'
p8206
sS'334803'
p8207
S'ZP_00936989.1'
p8208
sS'2465'
p8209
S'YP_024417.1'
p8210
sS'270574'
p8211
S'YP_001054738.1'
p8212
sS'141976'
p8213
S'YP_097244.1'
p8214
sS'294369'
p8215
S'YP_164441.1'
p8216
sS'46242'
p8217
S'NP_258409.1'
p8218
sS'45594'
p8219
S'YP_052724.1'
p8220
sS'10724'
p8221
S'YP_710299.1'
p8222
sS'45224'
p8223
S'NP_044744.1'
p8224
sS'10726'
p8225
S'YP_006998.1'
p8226
sS'5142'
p8227
S'NP_058435.1'
p8228
sS'2469'
p8229
S'NP_052155.1'
p8230
sS'5141'
p8231
S'NP_041731.1'
p8232
sS'75140'
p8233
S'NP_008548.1'
p8234
sS'425386'
p8235
S'YP_001294076.1'
p8236
sS'445338'
p8237
S'NZ_ABDR01000066.1'
p8238
sS'367459'
p8239
S'ZP_01805429.1'
p8240
sS'299586'
p8241
S'YP_001409241.1'
p8242
sS'198589'
p8243
S'NP_660173.1'
p8244
sS'234829'
p8245
S'NP_859031.1'
p8246
sS'260614'
p8247
S'YP_448815.1'
p8248
sS'260613'
p8249
S'YP_448854.1'
p8250
sS'422289'
p8251
S'ZP_02005078.1'
p8252
sS'392499'
p8253
S'YP_001265361.1'
p8254
sS'229149'
p8255
S'NP_945132.1'
p8256
sS'210202'
p8257
S'YP_254699.1'
p8258
sS'313627'
p8259
S'ZP_01174156.1'
p8260
sS'198612'
p8261
S'NP_619703.1'
p8262
sS'271848'
p8263
S'YP_443836.1'
p8264
sS'209052'
p8265
S'YP_022748.1'
p8266
sS'186371'
p8267
S'NP_570980.1'
p8268
sS'143942'
p8269
S'NP_071696.1'
p8270
sS'204987'
p8271
S'NP_872278.1'
p8272
sS'185689'
p8273
S'NP_620339.1'
p8274
sS'260797'
p8275
S'YP_001111031.1'
p8276
sS'12143'
p8277
S'NP_040957.1'
p8278
sS'12142'
p8279
S'NP_039812.1'
p8280
sS'349370'
p8281
S'YP_610962.1'
p8282
sS'134632'
p8283
S'NP_602315.1'
p8284
sS'408719'
p8285
S'YP_980248.1'
p8286
sS'12145'
p8287
S'NP_062901.1'
p8288
sS'12144'
p8289
S'NP_613264.1'
p8290
sS'454231'
p8291
S'NZ_ABEI01000053.1'
p8292
sS'162013'
p8293
S'NP_665871.1'
p8294
sS'35758'
p8295
S'YP_001004139.1'
p8296
sS'411490'
p8297
S'NZ_ABAX01000066.1'
p8298
sS'85636'
p8299
S'NP_084775.1'
p8300
sS'48500'
p8301
S'YP_271936.1'
p8302
sS'328670'
p8303
S'YP_233107.1'
p8304
sS'221869'
p8305
S'YP_220627.1'
p8306
sS'266944'
p8307
S'YP_073322.1'
p8308
sS'7950'
p8309
S'YP_001293670.1'
p8310
sS'274495'
p8311
S'YP_053240.1'
p8312
sS'220985'
p8313
S'YP_308877.1'
p8314
sS'113370'
p8315
S'YP_762478.1'
p8316
sS'352914'
p8317
S'XP_731470.1'
p8318
sS'311176'
p8319
S'YP_052872.1'
p8320
sS'42858'
p8321
S'YP_209658.1'
p8322
sS'434059'
p8323
S'YP_001123009.1'
p8324
sS'9654'
p8325
S'YP_001096039.1'
p8326
sS'403833'
p8327
S'ZP_01779176.1'
p8328
sS'302069'
p8329
S'NC_006956.1'
p8330
sS'48499'
p8331
S'YP_271949.1'
p8332
sS'9301'
p8333
S'YP_423987.1'
p8334
sS'38525'
p8335
S'YP_443845.1'
p8336
sS'106118'
p8337
S'YP_001429590.1'
p8338
sS'7245'
p8339
S'NP_006914.1'
p8340
sS'33011'
p8341
S'NP_775693.1'
p8342
sS'13146'
p8343
S'YP_001096532.1'
p8344
sS'7240'
p8345
S'NP_982334.1'
p8346
sS'401704'
p8347
S'YP_001023817.1'
p8348
sS'401705'
p8349
S'YP_001023832.1'
p8350
sS'68402'
p8351
S'NC_003540.1'
p8352
sS'423445'
p8353
S'YP_001111260.1'
p8354
sS'9783'
p8355
S'YP_626379.1'
p8356
sS'70600'
p8357
S'NP_203304.1'
p8358
sS'9785'
p8359
S'NT_165820.1'
p8360
sS'382253'
p8361
S'YP_001425497.1'
p8362
sS'228399'
p8363
S'ZP_00348363.1'
p8364
sS'146032'
p8365
S'NP_150370.1'
p8366
sS'223998'
p8367
S'YP_227594.1'
p8368
sS'156889'
p8369
S'YP_867651.1'
p8370
sS'419947'
p8371
S'YP_001285314.1'
p8372
sS'162145'
p8373
S'YP_012613.1'
p8374
sS'169291'
p8375
S'YP_514761.1'
p8376
sS'223997'
p8377
S'YP_724460.1'
p8378
sS'203167'
p8379
S'YP_006356.1'
p8380
sS'48164'
p8381
S'YP_163971.1'
p8382
sS'48165'
p8383
S'YP_164023.1'
p8384
sS'5322'
p8385
S'NP_053000.1'
p8386
sS'48163'
p8387
S'YP_163906.1'
p8388
sS'78192'
p8389
S'YP_001123529.1'
p8390
sS'122291'
p8391
S'NP_057848.1'
p8392
sS'38062'
p8393
S'NP_056850.1'
p8394
sS'75914'
p8395
S'NP_821131.1'
p8396
sS'86543'
p8397
S'YP_626519.1'
p8398
sS'255587'
p8399
S'NP_945118.1'
p8400
sS'223308'
p8401
S'NP_808799.1'
p8402
sS'294382'
p8403
S'YP_164437.1'
p8404
sS'445516'
p8405
S'YP_001429962.1'
p8406
sS'121723'
p8407
S'ZP_01163070.1'
p8408
sS'178306'
p8409
S'NP_560915.1'
p8410
sS'219174'
p8411
S'NC_004728.1'
p8412
sS'314496'
p8413
S'YP_001249283.1'
p8414
sS'1648'
p8415
S'NP_053435.1'
p8416
sS'33653'
p8417
S'NP_051160.1'
p8418
sS'388540'
p8419
S'YP_784046.1'
p8420
sS'8811'
p8421
S'NP_115375.1'
p8422
sS'310953'
p8423
S'YP_224286.1'
p8424
sS'169865'
p8425
S'NP_835271.1'
p8426
sS'284592'
p8427
S'XP_462648.1'
p8428
sS'29491'
p8429
S'YP_001144405.1'
p8430
sS'243365'
p8431
S'NP_904077.1'
p8432
sS'288474'
p8433
S'YP_001004145.1'
p8434
sS'573'
p8435
S'NP_943546.1'
p8436
sS'334425'
p8437
S'YP_588434.1'
p8438
sS'11099'
p8439
S'NP_776271.1'
p8440
sS'94117'
p8441
S'NP_071654.1'
p8442
sS'183190'
p8443
S'NP_780293.1'
p8444
sS'399314'
p8445
S'YP_762678.1'
p8446
sS'7656'
p8447
S'NP_008133.1'
p8448
sS'411463'
p8449
S'ZP_02027605.1'
p8450
sS'601'
p8451
S'NP_058421.1'
p8452
sS'353259'
p8453
S'YP_913496.1'
p8454
sS'161528'
p8455
S'ZP_01865426.1'
p8456
sS'44088'
p8457
S'NP_955351.1'
p8458
sS'31658'
p8459
S'NP_776048.1'
p8460
sS'1423'
p8461
S'YP_567055.1'
p8462
sS'1422'
p8463
S'NP_044342.1'
p8464
sS'7092'
p8465
S'NP_570628.1'
p8466
sS'12177'
p8467
S'NP_077083.1'
p8468
sS'29549'
p8469
S'NP_044344.1'
p8470
sS'1428'
p8471
S'YP_724461.1'
p8472
sS'220618'
p8473
S'NP_835257.1'
p8474
sS'159153'
p8475
S'NP_694844.1'
p8476
sS'279540'
p8477
S'YP_138542.1'
p8478
sS'328672'
p8479
S'YP_224289.1'
p8480
sS'191871'
p8481
S'YP_003673.1'
p8482
sS'731'
p8483
S'NP_715625.1'
p8484
sS'730'
p8485
S'NP_957670.1'
p8486
sS'29833'
p8487
S'YP_492541.1'
p8488
sS'255470'
p8489
S'YP_308653.1'
p8490
sS'130310'
p8491
S'NP_597884.1'
p8492
sS'46287'
p8493
S'YP_313719.1'
p8494
sS'266940'
p8495
S'YP_001364236.1'
p8496
sS'738'
p8497
S'YP_195826.1'
p8498
sS'223307'
p8499
S'NP_049358.1'
p8500
sS'314260'
p8501
S'ZP_01018698.1'
p8502
sS'8073'
p8503
S'NP_739736.1'
p8504
sS'171366'
p8505
S'YP_192913.1'
p8506
sS'12173'
p8507
S'NP_932793.1'
p8508
sS'269796'
p8509
S'YP_428883.1'
p8510
sS'1359'
p8511
S'YP_263297.1'
p8512
sS'1358'
p8513
S'YP_874356.1'
p8514
sS'227720'
p8515
S'NP_848312.1'
p8516
sS'263578'
p8517
S'NP_976233.1'
p8518
sS'89187'
p8519
S'ZP_00961719.1'
p8520
sS'1352'
p8521
S'YP_976106.1'
p8522
sS'1351'
p8523
S'YP_783941.1'
p8524
sS'391593'
p8525
S'ZP_01752544.1'
p8526
sS'66834'
p8527
S'NP_046156.1'
p8528
sS'59749'
p8529
S'NP_734077.1'
p8530
sS'80789'
p8531
S'YP_913600.1'
p8532
sS'12271'
p8533
S'YP_054443.1'
p8534
sS'51034'
p8535
S'NP_049351.1'
p8536
sS'35886'
p8537
S'YP_001430156.1'
p8538
sS'317025'
p8539
S'YP_873949.1'
p8540
sS'9860'
p8541
S'YP_448958.1'
p8542
sS'331642'
p8543
S'YP_529898.1'
p8544
sS'59292'
p8545
S'YP_001123704.1'
p8546
sS'36802'
p8547
S'YP_214860.1'
p8548
sS'269799'
p8549
S'YP_386494.1'
p8550
sS'59291'
p8551
S'NP_073650.1'
p8552
sS'28304'
p8553
S'NP_064281.1'
p8554
sS'205918'
p8555
S'YP_238202.1'
p8556
sS'11144'
p8557
S'YP_209254.1'
p8558
sS'28300'
p8559
S'NP_041000.1'
p8560
sS'97956'
p8561
S'YP_192939.1'
p8562
sS'193119'
p8563
S'NC_003854.1'
p8564
sS'193118'
p8565
S'NC_003798.1'
p8566
sS'12275'
p8567
S'NP_958841.1'
p8568
sS'92444'
p8569
S'NP_066242.1'
p8570
sS'351348'
p8571
S'YP_961153.1'
p8572
sS'205914'
p8573
S'YP_874357.1'
p8574
sS'11149'
p8575
S'NP_840013.1'
p8576
sS'242507'
p8577
S'XP_370529.2'
p8578
sS'430557'
p8579
S'NZ_AAYE01000015.1'
p8580
sS'384765'
p8581
S'ZP_01551351.1'
p8582
sS'30099'
p8583
S'YP_026065.1'
p8584
sS'204507'
p8585
S'YP_667941.1'
p8586
sS'64279'
p8587
S'NP_044946.1'
p8588
sS'257311'
p8589
S'NP_886551.1'
p8590
sS'267124'
p8591
S'YP_448932.1'
p8592
sS'1517'
p8593
S'NP_862687.1'
p8594
sS'341685'
p8595
S'YP_345061.1'
p8596
sS'34594'
p8597
S'NP_996551.1'
p8598
sS'212045'
p8599
S'NZ_AAER01000044.1'
p8600
sS'34771'
p8601
S'YP_636043.1'
p8602
sS'320832'
p8603
S'YP_239487.1'
p8604
sS'34774'
p8605
S'YP_001293657.1'
p8606
sS'8364'
p8607
S'YP_203382.1'
p8608
sS'214684'
p8609
S'XP_573028.1'
p8610
sS'455631'
p8611
S'NZ_ABFD01000070.1'
p8612
sS'34576'
p8613
S'YP_588221.1'
p8614
sS'12814'
p8615
S'NP_044598.1'
p8616
sS'213494'
p8617
S'YP_192900.1'
p8618
sS'326036'
p8619
S'YP_001004329.1'
p8620
sS'12542'
p8621
S'NP_932093.1'
p8622
sS'34570'
p8623
S'YP_514792.1'
p8624
sS'447602'
p8625
S'YP_001285938.1'
p8626
sS'35080'
p8627
S'NP_008405.1'
p8628
sS'5889'
p8629
S'NP_059428.1'
p8630
sS'5888'
p8631
S'XP_001462604.1'
p8632
sS'48457'
p8633
S'NP_067147.1'
p8634
sS'295027'
p8635
S'YP_081619.1'
p8636
sS'87791'
p8637
S'NP_862623.1'
p8638
sS'447597'
p8639
S'YP_001285945.1'
p8640
sS'6550'
p8641
S'YP_073347.1'
p8642
sS'6551'
p8643
S'YP_448737.1'
p8644
sS'256803'
p8645
S'YP_794161.1'
p8646
sS'197221'
p8647
S'YP_654185.1'
p8648
sS'447598'
p8649
S'YP_001285943.1'
p8650
sS'351240'
p8651
S'YP_492619.1'
p8652
sS'181417'
p8653
S'NP_739749.1'
p8654
sS'221359'
p8655
S'ZP_01473139.1'
p8656
sS'272564'
p8657
S'ZP_01373300.1'
p8658
sS'35779'
p8659
S'NP_543034.1'
p8660
sS'47740'
p8661
S'NP_619714.1'
p8662
sS'5755'
p8663
S'NP_042563.1'
p8664
sS'35772'
p8665
S'NP_852620.1'
p8666
sS'398000'
p8667
S'ZP_01810717.1'
p8668
sS'425067'
p8669
S'ZP_01771030.1'
p8670
sS'223262'
p8671
S'NP_803874.1'
p8672
sS'55601'
p8673
S'NP_943603.1'
p8674
sS'267410'
p8675
S'ZP_00232290.1'
p8676
sS'412883'
p8677
S'ZP_01958432.1'
p8678
sS'11552'
p8679
S'YP_089658.1'
p8680
sS'69944'
p8681
S'NP_739723.1'
p8682
sS'43080'
p8683
S'YP_138497.1'
p8684
sS'262110'
p8685
S'YP_973114.1'
p8686
sS'6637'
p8687
S'YP_112463.1'
p8688
sS'223358'
p8689
S'NP_047199.1'
p8690
sS'27293'
p8691
S'NP_861475.1'
p8692
sS'55288'
p8693
S'YP_001382319.1'
p8694
sS'377461'
p8695
S'YP_851014.1'
p8696
sS'361652'
p8697
S'YP_619875.1'
p8698
sS'43240'
p8699
S'NP_734358.1'
p8700
sS'185954'
p8701
S'YP_956854.1'
p8702
sS'39113'
p8703
S'NP_757361.1'
p8704
sS'39112'
p8705
S'NP_803217.1'
p8706
sS'194802'
p8707
S'NP_640328.1'
p8708
sS'326298'
p8709
S'YP_394613.1'
p8710
sS'39116'
p8711
S'NP_043465.1'
p8712
sS'103881'
p8713
S'YP_829128.1'
p8714
sS'359'
p8715
S'NP_066753.1'
p8716
sS'9888'
p8717
S'NP_783567.1'
p8718
sS'354260'
p8719
S'NP_839940.1'
p8720
sS'60560'
p8721
S'YP_187600.1'
p8722
sS'52274'
p8723
S'NP_044389.1'
p8724
sS'120574'
p8725
S'NP_758432.1'
p8726
sS'166789'
p8727
S'YP_337904.1'
p8728
sS'412422'
p8729
S'NZ_AAUD01000031.1'
p8730
sS'314253'
p8731
S'ZP_01048676.1'
p8732
sS'12777'
p8733
S'NP_734449.1'
p8734
sS'306263'
p8735
S'ZP_00369819.1'
p8736
sS'314254'
p8737
S'ZP_00958172.1'
p8738
sS'423368'
p8739
S'YP_001102069.1'
p8740
sS'209261'
p8741
S'NP_808208.1'
p8742
sS'412420'
p8743
S'ZP_02022784.1'
p8744
sS'261001'
p8745
S'YP_089615.1'
p8746
sS'435895'
p8747
S'NP_572133.1'
p8748
sS'13632'
p8749
S'YP_001425551.1'
p8750
sS'222464'
p8751
S'NP_795351.1'
p8752
sS'198929'
p8753
S'NP_942604.1'
p8754
sS'150090'
p8755
S'NP_149956.1'
p8756
sS'86975'
p8757
S'YP_448802.1'
p8758
sS'77775'
p8759
S'NP_945023.1'
p8760
sS'386610'
p8761
S'YP_626505.1'
p8762
sS'263004'
p8763
S'YP_164263.1'
p8764
sS'215407'
p8765
S'YP_514696.1'
p8766
sS'323261'
p8767
S'YP_345060.1'
p8768
sS'69547'
p8769
S'YP_001434526.1'
p8770
sS'51677'
p8771
S'NP_059329.1'
p8772
sS'285'
p8773
S'NC_002143.1'
p8774
sS'169690'
p8775
S'NP_877490.1'
p8776
sS'287'
p8777
S'YP_758734.1'
p8778
sS'207949'
p8779
S'ZP_01308709.1'
p8780
sS'411903'
p8781
S'ZP_01773397.1'
p8782
sS'170965'
p8783
S'NP_659390.1'
p8784
sS'263001'
p8785
S'NP_871721.1'
p8786
sS'63723'
p8787
S'NP_620668.1'
p8788
sS'121428'
p8789
S'YP_195758.1'
p8790
sS'228695'
p8791
S'YP_448763.1'
p8792
sS'263'
p8793
S'NP_052245.1'
p8794
sS'223524'
p8795
S'NP_835484.1'
p8796
sS'36212'
p8797
S'YP_194936.1'
p8798
sS'375286'
p8799
S'YP_001355387.1'
p8800
sS'260372'
p8801
S'YP_053006.1'
p8802
sS'264'
p8803
S'NP_862370.1'
p8804
sS'173443'
p8805
S'NP_720339.1'
p8806
sS'164528'
p8807
S'YP_424000.1'
p8808
sS'235909'
p8809
S'YP_149351.1'
p8810
sS'347537'
p8811
S'YP_001382396.1'
p8812
sS'172148'
p8813
S'NP_775478.1'
p8814
sS'349564'
p8815
S'YP_529835.1'
p8816
sS'266942'
p8817
S'YP_073335.1'
p8818
sS'411489'
p8819
S'NZ_AAYW01000048.1'
p8820
sS'345219'
p8821
S'ZP_01697920.1'
p8822
sS'167634'
p8823
S'NP_835340.1'
p8824
sS'331678'
p8825
S'ZP_00534141.1'
p8826
sS'193567'
p8827
S'NP_803123.1'
p8828
sS'281689'
p8829
S'ZP_01314187.1'
p8830
sS'7897'
p8831
S'NP_008341.1'
p8832
sS'270673'
p8833
S'YP_024786.1'
p8834
sS'7892'
p8835
S'NP_387484.1'
p8836
sS'352473'
p8837
S'YP_667843.1'
p8838
sS'196089'
p8839
S'NP_631950.1'
p8840
sS'9261'
p8841
S'NP_542242.1'
p8842
sS'329254'
p8843
S'YP_453617.1'
p8844
sS'9267'
p8845
S'NP_007107.1'
p8846
sS'46253'
p8847
S'NP_542611.1'
p8848
sS'64285'
p8849
S'NP_776080.1'
p8850
sS'349746'
p8851
S'ZP_00798683.1'
p8852
sS'64287'
p8853
S'YP_224133.1'
p8854
sS'64286'
p8855
S'YP_164819.1'
p8856
sS'349967'
p8857
S'ZP_00827538.1'
p8858
sS'64280'
p8859
S'NP_775688.1'
p8860
sS'10730'
p8861
S'NP_049540.1'
p8862
sS'93934'
p8863
S'NP_572026.1'
p8864
sS'185453'
p8865
S'NP_861501.1'
p8866
sS'7871'
p8867
S'NP_395452.1'
p8868
sS'357284'
p8869
S'YP_913665.1'
p8870
sS'218849'
p8871
S'NP_976250.1'
p8872
sS'47416'
p8873
S'NP_734025.1'
p8874
sS'50948'
p8875
S'NP_891845.1'
p8876
sS'2787'
p8877
S'NP_054005.1'
p8878
sS'60585'
p8879
S'YP_187574.1'
p8880
sS'36329'
p8881
S'XP_966307.1'
p8882
sS'139722'
p8883
S'NP_740217.1'
p8884
sS'2782'
p8885
S'NP_052234.1'
p8886
sS'392761'
p8887
S'YP_001040013.1'
p8888
sS'357281'
p8889
S'YP_913613.1'
p8890
sS'38400'
p8891
S'NP_052213.1'
p8892
sS'36453'
p8893
S'NC_001462.1'
p8894
sS'2788'
p8895
S'YP_537076.1'
p8896
sS'12390'
p8897
S'NP_996725.1'
p8898
sS'411485'
p8899
S'NZ_ABED01000057.1'
p8900
sS'11604'
p8901
S'NP_941984.1'
p8902
sS'10600'
p8903
S'NP_040304.1'
p8904
sS'11901'
p8905
S'NP_777386.1'
p8906
sS'12158'
p8907
S'NP_044329.1'
p8908
sS'393011'
p8909
S'YP_764259.1'
p8910
sS'12154'
p8911
S'NP_733819.1'
p8912
sS'85404'
p8913
S'NP_573540.1'
p8914
sS'45103'
p8915
S'NP_059512.1'
p8916
sS'11608'
p8917
S'NP_942558.1'
p8918
sS'12152'
p8919
S'NP_047921.1'
p8920
sS'12153'
p8921
S'NP_041258.1'
p8922
sS'333045'
p8923
S'YP_610952.1'
p8924
sS'172520'
p8925
S'YP_001083083.1'
p8926
sS'11958'
p8927
S'NP_040504.1'
p8928
sS'401040'
p8929
S'YP_764517.1'
p8930
sS'240496'
p8931
S'YP_022499.1'
p8932
sS'320389'
p8933
S'YP_001083059.1'
p8934
sS'44272'
p8935
S'NP_040419.1'
p8936
sS'62295'
p8937
S'NP_871786.1'
p8938
sS'180454'
p8939
S'XP_566417.2'
p8940
sS'352451'
p8941
S'YP_913444.1'
p8942
sS'389227'
p8943
S'NC_008295.1'
p8944
sS'333920'
p8945
S'NP_620513.1'
p8946
sS'9319'
p8947
S'NP_007406.1'
p8948
sS'302099'
p8949
S'YP_213936.1'
p8950
sS'9644'
p8951
S'NP_597980.1'
p8952
sS'9646'
p8953
S'YP_001249296.1'
p8954
sS'195063'
p8955
S'NC_003851.1'
p8956
sS'9643'
p8957
S'NP_597967.1'
p8958
sS'9310'
p8959
S'YP_161285.1'
p8960
sS'8954'
p8961
S'NP_008724.1'
p8962
sS'176652'
p8963
S'NP_149930.1'
p8964
sS'37036'
p8965
S'YP_238215.1'
p8966
sS'383858'
p8967
S'YP_665537.1'
p8968
sS'206672'
p8969
S'YP_190223.1'
p8970
sS'198112'
p8971
S'NP_853560.2'
p8972
sS'208525'
p8973
S'YP_272084.1'
p8974
sS'208524'
p8975
S'YP_272058.1'
p8976
sS'172314'
p8977
S'NP_705884.1'
p8978
sS'279280'
p8979
S'YP_024966.1'
p8980
sS'68416'
p8981
S'NP_046803.1'
p8982
sS'362693'
p8983
S'YP_438200.1'
p8984
sS'9793'
p8985
S'NP_007393.1'
p8986
sS'279281'
p8987
S'YP_025079.1'
p8988
sS'139034'
p8989
S'YP_271916.1'
p8990
sS'9796'
p8991
S'XR_036512.1'
p8992
sS'185588'
p8993
S'NP_862026.1'
p8994
sS'170202'
p8995
S'NP_795819.1'
p8996
sS'36033'
p8997
S'YP_001331021.1'
p8998
sS'195321'
p8999
S'YP_272014.1'
p9000
sS'413404'
p9001
S'YP_904251.1'
p9002
sS'272632'
p9003
S'NP_976027.1'
p9004
sS'6832'
p9005
S'YP_001023788.1'
p9006
sS'272631'
p9007
S'NP_302733.1'
p9008
sS'255644'
p9009
S'YP_908789.1'
p9010
sS'216816'
p9011
S'YP_232882.1'
p9012
sS'272634'
p9013
S'NP_110377.1'
p9014
sS'272635'
p9015
S'NP_326613.1'
p9016
sS'415426'
p9017
S'YP_001013828.1'
p9018
sS'316055'
p9019
S'YP_783819.1'
p9020
sS'316407'
p9021
S'AP_004891.1'
p9022
sS'299033'
p9023
S'YP_001272513.1'
p9024
sS'322159'
p9025
S'YP_821301.1'
p9026
sS'243277'
p9027
S'NP_233494.1'
p9028
sS'10553'
p9029
S'AP_000437.1'
p9030
sS'109270'
p9031
S'NP_054719.1'
p9032
sS'338126'
p9033
S'YP_512655.1'
p9034
sS'129043'
p9035
S'NP_443540.1'
p9036
sS'78451'
p9037
S'YP_659472.1'
p9038
sS'38658'
p9039
S'YP_001425538.1'
p9040
sS'338903'
p9041
S'YP_610959.1'
p9042
sS'322855'
p9043
S'YP_239352.1'
p9044
sS'347219'
p9045
S'YP_654568.1'
p9046
sS'211787'
p9047
S'NP_775311.1'
p9048
sS'342451'
p9049
S'YP_302604.1'
p9050
sS'30468'
p9051
S'NP_115401.1'
p9052
sS'38654'
p9053
S'NP_758792.2'
p9054
sS'8823'
p9055
S'NP_115414.1'
p9056
sS'363716'
p9057
S'YP_529669.1'
p9058
sS'89574'
p9059
S'YP_783982.1'
p9060
sS'176279'
p9061
S'YP_190094.1'
p9062
sS'33543'
p9063
S'YP_122155.1'
p9064
sS'203124'
p9065
S'YP_724454.1'
p9066
sS'211146'
p9067
S'YP_001210550.1'
p9068
sS'37325'
p9069
S'YP_068413.1'
p9070
sS'298331'
p9071
S'NP_062454.1'
p9072
sS'569'
p9073
S'YP_025365.1'
p9074
sS'59931'
p9075
S'ZP_01125472.1'
p9076
sS'205880'
p9077
S'NP_818647.1'
p9078
sS'351016'
p9079
S'ZP_01905111.1'
p9080
sS'290512'
p9081
S'ZP_00593180.1'
p9082
sS'29486'
p9083
S'YP_001101879.1'
p9084
sS'186497'
p9085
S'NP_877945.1'
p9086
sS'398767'
p9087
S'ZP_01594953.1'
p9088
sS'7640'
p9089
S'NP_007354.1'
p9090
sS'56262'
p9091
S'YP_842424.1'
p9092
sS'211488'
p9093
S'YP_063507.1'
p9094
sS'221037'
p9095
S'NP_877494.1'
p9096
sS'62079'
p9097
S'NP_817129.1'
p9098
sS'39432'
p9099
S'NT_166746.1'
p9100
sS'168471'
p9101
S'YP_184746.1'
p9102
sS'310539'
p9103
S'YP_224275.1'
p9104
sS'407392'
p9105
S'YP_874183.1'
p9106
sS'30790'
p9107
S'YP_636918.1'
p9108
sS'62275'
p9109
S'NP_976125.1'
p9110
sS'266264'
p9111
S'YP_588069.1'
p9112
sS'212042'
p9113
S'YP_505903.1'
p9114
sS'299728'
p9115
S'YP_398835.1'
p9116
sS'1184'
p9117
S'NC_002141.1'
p9118
sS'170189'
p9119
S'NP_795728.1'
p9120
sS'227882'
p9121
S'YP_187529.1'
p9122
sS'71030'
p9123
S'NP_067738.1'
p9124
sS'725'
p9125
S'YP_271726.1'
p9126
sS'1748'
p9127
S'NP_068724.1'
p9128
sS'1749'
p9129
S'NP_981985.1'
p9130
sS'1744'
p9131
S'NP_067616.1'
p9132
sS'216595'
p9133
S'YP_001202223.1'
p9134
sS'252602'
p9135
S'YP_068094.1'
p9136
sS'40979'
p9137
S'NP_942020.1'
p9138
sS'728'
p9139
S'NP_943199.1'
p9140
sS'118154'
p9141
S'NP_991092.1'
p9142
sS'318558'
p9143
S'YP_238534.1'
p9144
sS'6494'
p9145
S'YP_001004260.1'
p9146
sS'67825'
p9147
S'NP_277067.1'
p9148
sS'126614'
p9149
S'YP_044777.1'
p9150
sS'227377'
p9151
S'YP_338283.1'
p9152
sS'338122'
p9153
S'YP_512611.1'
p9154
sS'272569'
p9155
S'YP_138204.1'
p9156
sS'205920'
p9157
S'YP_507940.1'
p9158
sS'205921'
p9159
S'YP_330723.1'
p9160
sS'205922'
p9161
S'YP_351469.1'
p9162
sS'272562'
p9163
S'NP_350319.1'
p9164
sS'272563'
p9165
S'YP_659587.1'
p9166
sS'272560'
p9167
S'YP_112354.1'
p9168
sS'272561'
p9169
S'NP_220396.1'
p9170
sS'322104'
p9171
S'XP_001388043.2'
p9172
sS'233412'
p9173
S'NP_874352.1'
p9174
sS'137475'
p9175
S'YP_308886.1'
p9176
sS'359812'
p9177
S'YP_610951.1'
p9178
sS'50733'
p9179
S'YP_001054788.1'
p9180
sS'28375'
p9181
S'NP_049340.1'
p9182
sS'11176'
p9183
S'NP_071471.1'
p9184
sS'425279'
p9185
S'YP_001041892.1'
p9186
sS'151043'
p9187
S'NP_620757.1'
p9188
sS'196400'
p9189
S'NP_047285.1'
p9190
sS'470'
p9191
S'YP_213956.1'
p9192
sS'262968'
p9193
S'YP_164257.1'
p9194
sS'299323'
p9195
S'YP_514735.1'
p9196
sS'216259'
p9197
S'YP_025736.1'
p9198
sS'47573'
p9199
S'NP_038197.1'
p9200
sS'1292'
p9201
S'YP_251908.1'
p9202
sS'267130'
p9203
S'YP_063359.1'
p9204
sS'1296'
p9205
S'NP_899177.1'
p9206
sS'347327'
p9207
S'YP_001294663.1'
p9208
sS'188333'
p9209
S'NP_598191.1'
p9210
sS'338118'
p9211
S'YP_512567.1'
p9212
sS'347326'
p9213
S'YP_001218856.1'
p9214
sS'74940'
p9215
S'NP_148950.1'
p9216
sS'333923'
p9217
S'NP_041372.1'
p9218
sS'35304'
p9219
S'NP_047214.1'
p9220
sS'284813'
p9221
S'XP_965996.1'
p9222
sS'61673'
p9223
S'NC_003059.1'
p9224
sS'284811'
p9225
S'XP_001267679.1'
p9226
sS'107241'
p9227
S'NP_739905.1'
p9228
sS'10640'
p9229
S'NP_612578.1'
p9230
sS'8554'
p9231
S'YP_980216.1'
p9232
sS'338117'
p9233
S'YP_512556.1'
p9234
sS'12558'
p9235
S'NP_996748.1'
p9236
sS'317925'
p9237
S'YP_913535.1'
p9238
sS'10641'
p9239
S'NP_597788.1'
p9240
sS'213657'
p9241
S'NP_861514.1'
p9242
sS'13825'
p9243
S'YP_001023762.1'
p9244
sS'12809'
p9245
S'NP_954617.1'
p9246
sS'445337'
p9247
S'NZ_ABDQ01000076.1'
p9248
sS'435896'
p9249
S'YP_001129435.1'
p9250
sS'402612'
p9251
S'YP_001297352.1'
p9252
sS'181406'
p9253
S'NP_739684.1'
p9254
sS'225067'
p9255
S'YP_022486.1'
p9256
sS'413066'
p9257
S'YP_950598.1'
p9258
sS'217634'
p9259
S'YP_659524.1'
p9260
sS'335187'
p9261
S'YP_762620.1'
p9262
sS'373903'
p9263
S'ZP_01190205.1'
p9264
sS'3197'
p9265
S'YP_717185.1'
p9266
sS'335341'
p9267
S'YP_308876.1'
p9268
sS'7469'
p9269
S'NP_008094.1'
p9270
sS'260799'
p9271
S'YP_031578.1'
p9272
sS'1360'
p9273
S'YP_879303.1'
p9274
sS'338119'
p9275
S'YP_512578.1'
p9276
sS'221360'
p9277
S'ZP_01081652.1'
p9278
sS'156739'
p9279
S'NP_114223.1'
p9280
sS'338114'
p9281
S'YP_512523.1'
p9282
sS'7460'
p9283
S'XR_015109.1'
p9284
sS'338112'
p9285
S'YP_512501.1'
p9286
sS'338113'
p9287
S'YP_512512.1'
p9288
sS'338110'
p9289
S'YP_512479.1'
p9290
sS'103722'
p9291
S'NP_542615.1'
p9292
s.